Component: ARM Compiler 5.06 update 6 (build 750) Tool: armlink [4d35ed]

==============================================================================

Section Cross References

    stm32f4xx_hal_can.o(i.CAN_Receive_IT) refers to stm32f4xx_hal_can.o(i.HAL_CAN_RxCpltCallback) for HAL_CAN_RxCpltCallback
    stm32f4xx_hal_can.o(i.HAL_CAN_DeInit) refers to stm32f4xx_hal_msp.o(i.HAL_CAN_MspDeInit) for HAL_CAN_MspDeInit
    stm32f4xx_hal_can.o(i.HAL_CAN_IRQHandler) refers to stm32f4xx_hal_can.o(i.HAL_CAN_TxCpltCallback) for HAL_CAN_TxCpltCallback
    stm32f4xx_hal_can.o(i.HAL_CAN_IRQHandler) refers to stm32f4xx_hal_can.o(i.CAN_Receive_IT) for CAN_Receive_IT
    stm32f4xx_hal_can.o(i.HAL_CAN_IRQHandler) refers to stm32f4xx_hal_can.o(i.HAL_CAN_ErrorCallback) for HAL_CAN_ErrorCallback
    stm32f4xx_hal_can.o(i.HAL_CAN_Init) refers to stm32f4xx_hal_msp.o(i.HAL_CAN_MspInit) for HAL_CAN_MspInit
    stm32f4xx_hal_can.o(i.HAL_CAN_Init) refers to stm32f4xx_hal.o(i.HAL_GetTick) for HAL_GetTick
    stm32f4xx_hal_can.o(i.HAL_CAN_Receive) refers to stm32f4xx_hal.o(i.HAL_GetTick) for HAL_GetTick
    stm32f4xx_hal_can.o(i.HAL_CAN_Sleep) refers to stm32f4xx_hal.o(i.HAL_GetTick) for HAL_GetTick
    stm32f4xx_hal_can.o(i.HAL_CAN_Transmit) refers to stm32f4xx_hal.o(i.HAL_GetTick) for HAL_GetTick
    stm32f4xx_hal_can.o(i.HAL_CAN_WakeUp) refers to stm32f4xx_hal.o(i.HAL_GetTick) for HAL_GetTick
    stm32f4xx_hal_tim.o(i.HAL_TIM_Base_DeInit) refers to stm32f4xx_hal_msp.o(i.HAL_TIM_Base_MspDeInit) for HAL_TIM_Base_MspDeInit
    stm32f4xx_hal_tim.o(i.HAL_TIM_Base_Init) refers to stm32f4xx_hal_msp.o(i.HAL_TIM_Base_MspInit) for HAL_TIM_Base_MspInit
    stm32f4xx_hal_tim.o(i.HAL_TIM_Base_Init) refers to stm32f4xx_hal_tim.o(i.TIM_Base_SetConfig) for TIM_Base_SetConfig
    stm32f4xx_hal_tim.o(i.HAL_TIM_Base_Start_DMA) refers to stm32f4xx_hal_dma.o(i.HAL_DMA_Start_IT) for HAL_DMA_Start_IT
    stm32f4xx_hal_tim.o(i.HAL_TIM_Base_Start_DMA) refers to stm32f4xx_hal_tim.o(i.TIM_DMAPeriodElapsedCplt) for TIM_DMAPeriodElapsedCplt
    stm32f4xx_hal_tim.o(i.HAL_TIM_Base_Start_DMA) refers to stm32f4xx_hal_tim.o(i.TIM_DMAError) for TIM_DMAError
    stm32f4xx_hal_tim.o(i.HAL_TIM_ConfigClockSource) refers to stm32f4xx_hal_tim.o(i.TIM_ETR_SetConfig) for TIM_ETR_SetConfig
    stm32f4xx_hal_tim.o(i.HAL_TIM_ConfigClockSource) refers to stm32f4xx_hal_tim.o(i.TIM_TI1_ConfigInputStage) for TIM_TI1_ConfigInputStage
    stm32f4xx_hal_tim.o(i.HAL_TIM_ConfigClockSource) refers to stm32f4xx_hal_tim.o(i.TIM_TI2_ConfigInputStage) for TIM_TI2_ConfigInputStage
    stm32f4xx_hal_tim.o(i.HAL_TIM_ConfigClockSource) refers to stm32f4xx_hal_tim.o(i.TIM_ITRx_SetConfig) for TIM_ITRx_SetConfig
    stm32f4xx_hal_tim.o(i.HAL_TIM_ConfigOCrefClear) refers to stm32f4xx_hal_tim.o(i.TIM_ETR_SetConfig) for TIM_ETR_SetConfig
    stm32f4xx_hal_tim.o(i.HAL_TIM_DMABurst_ReadStart) refers to stm32f4xx_hal_dma.o(i.HAL_DMA_Start_IT) for HAL_DMA_Start_IT
    stm32f4xx_hal_tim.o(i.HAL_TIM_DMABurst_ReadStart) refers to stm32f4xx_hal_tim.o(i.TIM_DMAError) for TIM_DMAError
    stm32f4xx_hal_tim.o(i.HAL_TIM_DMABurst_ReadStart) refers to stm32f4xx_hal_tim.o(i.TIM_DMACaptureCplt) for TIM_DMACaptureCplt
    stm32f4xx_hal_tim.o(i.HAL_TIM_DMABurst_ReadStart) refers to stm32f4xx_hal_tim.o(i.TIM_DMAPeriodElapsedCplt) for TIM_DMAPeriodElapsedCplt
    stm32f4xx_hal_tim.o(i.HAL_TIM_DMABurst_ReadStart) refers to stm32f4xx_hal_tim_ex.o(i.TIMEx_DMACommutationCplt) for TIMEx_DMACommutationCplt
    stm32f4xx_hal_tim.o(i.HAL_TIM_DMABurst_ReadStart) refers to stm32f4xx_hal_tim.o(i.TIM_DMATriggerCplt) for TIM_DMATriggerCplt
    stm32f4xx_hal_tim.o(i.HAL_TIM_DMABurst_ReadStop) refers to stm32f4xx_hal_dma.o(i.HAL_DMA_Abort) for HAL_DMA_Abort
    stm32f4xx_hal_tim.o(i.HAL_TIM_DMABurst_WriteStart) refers to stm32f4xx_hal_dma.o(i.HAL_DMA_Start_IT) for HAL_DMA_Start_IT
    stm32f4xx_hal_tim.o(i.HAL_TIM_DMABurst_WriteStart) refers to stm32f4xx_hal_tim.o(i.TIM_DMAError) for TIM_DMAError
    stm32f4xx_hal_tim.o(i.HAL_TIM_DMABurst_WriteStart) refers to stm32f4xx_hal_tim.o(i.TIM_DMADelayPulseCplt) for TIM_DMADelayPulseCplt
    stm32f4xx_hal_tim.o(i.HAL_TIM_DMABurst_WriteStart) refers to stm32f4xx_hal_tim.o(i.TIM_DMAPeriodElapsedCplt) for TIM_DMAPeriodElapsedCplt
    stm32f4xx_hal_tim.o(i.HAL_TIM_DMABurst_WriteStart) refers to stm32f4xx_hal_tim_ex.o(i.TIMEx_DMACommutationCplt) for TIMEx_DMACommutationCplt
    stm32f4xx_hal_tim.o(i.HAL_TIM_DMABurst_WriteStart) refers to stm32f4xx_hal_tim.o(i.TIM_DMATriggerCplt) for TIM_DMATriggerCplt
    stm32f4xx_hal_tim.o(i.HAL_TIM_DMABurst_WriteStop) refers to stm32f4xx_hal_dma.o(i.HAL_DMA_Abort) for HAL_DMA_Abort
    stm32f4xx_hal_tim.o(i.HAL_TIM_Encoder_DeInit) refers to stm32f4xx_hal_tim.o(i.HAL_TIM_Encoder_MspDeInit) for HAL_TIM_Encoder_MspDeInit
    stm32f4xx_hal_tim.o(i.HAL_TIM_Encoder_Init) refers to stm32f4xx_hal_tim.o(i.HAL_TIM_Encoder_MspInit) for HAL_TIM_Encoder_MspInit
    stm32f4xx_hal_tim.o(i.HAL_TIM_Encoder_Init) refers to stm32f4xx_hal_tim.o(i.TIM_Base_SetConfig) for TIM_Base_SetConfig
    stm32f4xx_hal_tim.o(i.HAL_TIM_Encoder_Start) refers to stm32f4xx_hal_tim.o(i.TIM_CCxChannelCmd) for TIM_CCxChannelCmd
    stm32f4xx_hal_tim.o(i.HAL_TIM_Encoder_Start_DMA) refers to stm32f4xx_hal_dma.o(i.HAL_DMA_Start_IT) for HAL_DMA_Start_IT
    stm32f4xx_hal_tim.o(i.HAL_TIM_Encoder_Start_DMA) refers to stm32f4xx_hal_tim.o(i.TIM_CCxChannelCmd) for TIM_CCxChannelCmd
    stm32f4xx_hal_tim.o(i.HAL_TIM_Encoder_Start_DMA) refers to stm32f4xx_hal_tim.o(i.TIM_DMACaptureCplt) for TIM_DMACaptureCplt
    stm32f4xx_hal_tim.o(i.HAL_TIM_Encoder_Start_DMA) refers to stm32f4xx_hal_tim.o(i.TIM_DMAError) for TIM_DMAError
    stm32f4xx_hal_tim.o(i.HAL_TIM_Encoder_Start_IT) refers to stm32f4xx_hal_tim.o(i.TIM_CCxChannelCmd) for TIM_CCxChannelCmd
    stm32f4xx_hal_tim.o(i.HAL_TIM_Encoder_Stop) refers to stm32f4xx_hal_tim.o(i.TIM_CCxChannelCmd) for TIM_CCxChannelCmd
    stm32f4xx_hal_tim.o(i.HAL_TIM_Encoder_Stop_DMA) refers to stm32f4xx_hal_tim.o(i.TIM_CCxChannelCmd) for TIM_CCxChannelCmd
    stm32f4xx_hal_tim.o(i.HAL_TIM_Encoder_Stop_IT) refers to stm32f4xx_hal_tim.o(i.TIM_CCxChannelCmd) for TIM_CCxChannelCmd
    stm32f4xx_hal_tim.o(i.HAL_TIM_IC_ConfigChannel) refers to stm32f4xx_hal_tim.o(i.TIM_TI1_SetConfig) for TIM_TI1_SetConfig
    stm32f4xx_hal_tim.o(i.HAL_TIM_IC_ConfigChannel) refers to stm32f4xx_hal_tim.o(i.TIM_TI2_SetConfig) for TIM_TI2_SetConfig
    stm32f4xx_hal_tim.o(i.HAL_TIM_IC_DeInit) refers to stm32f4xx_hal_tim.o(i.HAL_TIM_IC_MspDeInit) for HAL_TIM_IC_MspDeInit
    stm32f4xx_hal_tim.o(i.HAL_TIM_IC_Init) refers to stm32f4xx_hal_tim.o(i.HAL_TIM_IC_MspInit) for HAL_TIM_IC_MspInit
    stm32f4xx_hal_tim.o(i.HAL_TIM_IC_Init) refers to stm32f4xx_hal_tim.o(i.TIM_Base_SetConfig) for TIM_Base_SetConfig
    stm32f4xx_hal_tim.o(i.HAL_TIM_IC_Start) refers to stm32f4xx_hal_tim.o(i.TIM_CCxChannelCmd) for TIM_CCxChannelCmd
    stm32f4xx_hal_tim.o(i.HAL_TIM_IC_Start_DMA) refers to stm32f4xx_hal_dma.o(i.HAL_DMA_Start_IT) for HAL_DMA_Start_IT
    stm32f4xx_hal_tim.o(i.HAL_TIM_IC_Start_DMA) refers to stm32f4xx_hal_tim.o(i.TIM_CCxChannelCmd) for TIM_CCxChannelCmd
    stm32f4xx_hal_tim.o(i.HAL_TIM_IC_Start_DMA) refers to stm32f4xx_hal_tim.o(i.TIM_DMACaptureCplt) for TIM_DMACaptureCplt
    stm32f4xx_hal_tim.o(i.HAL_TIM_IC_Start_DMA) refers to stm32f4xx_hal_tim.o(i.TIM_DMAError) for TIM_DMAError
    stm32f4xx_hal_tim.o(i.HAL_TIM_IC_Start_IT) refers to stm32f4xx_hal_tim.o(i.TIM_CCxChannelCmd) for TIM_CCxChannelCmd
    stm32f4xx_hal_tim.o(i.HAL_TIM_IC_Stop) refers to stm32f4xx_hal_tim.o(i.TIM_CCxChannelCmd) for TIM_CCxChannelCmd
    stm32f4xx_hal_tim.o(i.HAL_TIM_IC_Stop_DMA) refers to stm32f4xx_hal_tim.o(i.TIM_CCxChannelCmd) for TIM_CCxChannelCmd
    stm32f4xx_hal_tim.o(i.HAL_TIM_IC_Stop_IT) refers to stm32f4xx_hal_tim.o(i.TIM_CCxChannelCmd) for TIM_CCxChannelCmd
    stm32f4xx_hal_tim.o(i.HAL_TIM_IRQHandler) refers to stm32f4xx_hal_tim.o(i.HAL_TIM_IC_CaptureCallback) for HAL_TIM_IC_CaptureCallback
    stm32f4xx_hal_tim.o(i.HAL_TIM_IRQHandler) refers to stm32f4xx_hal_tim.o(i.HAL_TIM_OC_DelayElapsedCallback) for HAL_TIM_OC_DelayElapsedCallback
    stm32f4xx_hal_tim.o(i.HAL_TIM_IRQHandler) refers to stm32f4xx_hal_tim.o(i.HAL_TIM_PWM_PulseFinishedCallback) for HAL_TIM_PWM_PulseFinishedCallback
    stm32f4xx_hal_tim.o(i.HAL_TIM_IRQHandler) refers to stm32f4xx_hal_tim.o(i.HAL_TIM_PeriodElapsedCallback) for HAL_TIM_PeriodElapsedCallback
    stm32f4xx_hal_tim.o(i.HAL_TIM_IRQHandler) refers to stm32f4xx_hal_tim_ex.o(i.HAL_TIMEx_BreakCallback) for HAL_TIMEx_BreakCallback
    stm32f4xx_hal_tim.o(i.HAL_TIM_IRQHandler) refers to stm32f4xx_hal_tim.o(i.HAL_TIM_TriggerCallback) for HAL_TIM_TriggerCallback
    stm32f4xx_hal_tim.o(i.HAL_TIM_IRQHandler) refers to stm32f4xx_hal_tim_ex.o(i.HAL_TIMEx_CommutationCallback) for HAL_TIMEx_CommutationCallback
    stm32f4xx_hal_tim.o(i.HAL_TIM_OC_ConfigChannel) refers to stm32f4xx_hal_tim.o(i.TIM_OC1_SetConfig) for TIM_OC1_SetConfig
    stm32f4xx_hal_tim.o(i.HAL_TIM_OC_ConfigChannel) refers to stm32f4xx_hal_tim.o(i.TIM_OC2_SetConfig) for TIM_OC2_SetConfig
    stm32f4xx_hal_tim.o(i.HAL_TIM_OC_ConfigChannel) refers to stm32f4xx_hal_tim.o(i.TIM_OC3_SetConfig) for TIM_OC3_SetConfig
    stm32f4xx_hal_tim.o(i.HAL_TIM_OC_ConfigChannel) refers to stm32f4xx_hal_tim.o(i.TIM_OC4_SetConfig) for TIM_OC4_SetConfig
    stm32f4xx_hal_tim.o(i.HAL_TIM_OC_DeInit) refers to stm32f4xx_hal_tim.o(i.HAL_TIM_OC_MspDeInit) for HAL_TIM_OC_MspDeInit
    stm32f4xx_hal_tim.o(i.HAL_TIM_OC_Init) refers to stm32f4xx_hal_tim.o(i.HAL_TIM_OC_MspInit) for HAL_TIM_OC_MspInit
    stm32f4xx_hal_tim.o(i.HAL_TIM_OC_Init) refers to stm32f4xx_hal_tim.o(i.TIM_Base_SetConfig) for TIM_Base_SetConfig
    stm32f4xx_hal_tim.o(i.HAL_TIM_OC_Start) refers to stm32f4xx_hal_tim.o(i.TIM_CCxChannelCmd) for TIM_CCxChannelCmd
    stm32f4xx_hal_tim.o(i.HAL_TIM_OC_Start_DMA) refers to stm32f4xx_hal_dma.o(i.HAL_DMA_Start_IT) for HAL_DMA_Start_IT
    stm32f4xx_hal_tim.o(i.HAL_TIM_OC_Start_DMA) refers to stm32f4xx_hal_tim.o(i.TIM_CCxChannelCmd) for TIM_CCxChannelCmd
    stm32f4xx_hal_tim.o(i.HAL_TIM_OC_Start_DMA) refers to stm32f4xx_hal_tim.o(i.TIM_DMADelayPulseCplt) for TIM_DMADelayPulseCplt
    stm32f4xx_hal_tim.o(i.HAL_TIM_OC_Start_DMA) refers to stm32f4xx_hal_tim.o(i.TIM_DMAError) for TIM_DMAError
    stm32f4xx_hal_tim.o(i.HAL_TIM_OC_Start_IT) refers to stm32f4xx_hal_tim.o(i.TIM_CCxChannelCmd) for TIM_CCxChannelCmd
    stm32f4xx_hal_tim.o(i.HAL_TIM_OC_Stop) refers to stm32f4xx_hal_tim.o(i.TIM_CCxChannelCmd) for TIM_CCxChannelCmd
    stm32f4xx_hal_tim.o(i.HAL_TIM_OC_Stop_DMA) refers to stm32f4xx_hal_tim.o(i.TIM_CCxChannelCmd) for TIM_CCxChannelCmd
    stm32f4xx_hal_tim.o(i.HAL_TIM_OC_Stop_IT) refers to stm32f4xx_hal_tim.o(i.TIM_CCxChannelCmd) for TIM_CCxChannelCmd
    stm32f4xx_hal_tim.o(i.HAL_TIM_OnePulse_ConfigChannel) refers to stm32f4xx_hal_tim.o(i.TIM_OC1_SetConfig) for TIM_OC1_SetConfig
    stm32f4xx_hal_tim.o(i.HAL_TIM_OnePulse_ConfigChannel) refers to stm32f4xx_hal_tim.o(i.TIM_OC2_SetConfig) for TIM_OC2_SetConfig
    stm32f4xx_hal_tim.o(i.HAL_TIM_OnePulse_ConfigChannel) refers to stm32f4xx_hal_tim.o(i.TIM_TI1_SetConfig) for TIM_TI1_SetConfig
    stm32f4xx_hal_tim.o(i.HAL_TIM_OnePulse_ConfigChannel) refers to stm32f4xx_hal_tim.o(i.TIM_TI2_SetConfig) for TIM_TI2_SetConfig
    stm32f4xx_hal_tim.o(i.HAL_TIM_OnePulse_DeInit) refers to stm32f4xx_hal_tim.o(i.HAL_TIM_OnePulse_MspDeInit) for HAL_TIM_OnePulse_MspDeInit
    stm32f4xx_hal_tim.o(i.HAL_TIM_OnePulse_Init) refers to stm32f4xx_hal_tim.o(i.HAL_TIM_OnePulse_MspInit) for HAL_TIM_OnePulse_MspInit
    stm32f4xx_hal_tim.o(i.HAL_TIM_OnePulse_Init) refers to stm32f4xx_hal_tim.o(i.TIM_Base_SetConfig) for TIM_Base_SetConfig
    stm32f4xx_hal_tim.o(i.HAL_TIM_OnePulse_Start) refers to stm32f4xx_hal_tim.o(i.TIM_CCxChannelCmd) for TIM_CCxChannelCmd
    stm32f4xx_hal_tim.o(i.HAL_TIM_OnePulse_Start_IT) refers to stm32f4xx_hal_tim.o(i.TIM_CCxChannelCmd) for TIM_CCxChannelCmd
    stm32f4xx_hal_tim.o(i.HAL_TIM_OnePulse_Stop) refers to stm32f4xx_hal_tim.o(i.TIM_CCxChannelCmd) for TIM_CCxChannelCmd
    stm32f4xx_hal_tim.o(i.HAL_TIM_OnePulse_Stop_IT) refers to stm32f4xx_hal_tim.o(i.TIM_CCxChannelCmd) for TIM_CCxChannelCmd
    stm32f4xx_hal_tim.o(i.HAL_TIM_PWM_ConfigChannel) refers to stm32f4xx_hal_tim.o(i.TIM_OC1_SetConfig) for TIM_OC1_SetConfig
    stm32f4xx_hal_tim.o(i.HAL_TIM_PWM_ConfigChannel) refers to stm32f4xx_hal_tim.o(i.TIM_OC2_SetConfig) for TIM_OC2_SetConfig
    stm32f4xx_hal_tim.o(i.HAL_TIM_PWM_ConfigChannel) refers to stm32f4xx_hal_tim.o(i.TIM_OC3_SetConfig) for TIM_OC3_SetConfig
    stm32f4xx_hal_tim.o(i.HAL_TIM_PWM_ConfigChannel) refers to stm32f4xx_hal_tim.o(i.TIM_OC4_SetConfig) for TIM_OC4_SetConfig
    stm32f4xx_hal_tim.o(i.HAL_TIM_PWM_DeInit) refers to stm32f4xx_hal_tim.o(i.HAL_TIM_PWM_MspDeInit) for HAL_TIM_PWM_MspDeInit
    stm32f4xx_hal_tim.o(i.HAL_TIM_PWM_Init) refers to stm32f4xx_hal_tim.o(i.HAL_TIM_PWM_MspInit) for HAL_TIM_PWM_MspInit
    stm32f4xx_hal_tim.o(i.HAL_TIM_PWM_Init) refers to stm32f4xx_hal_tim.o(i.TIM_Base_SetConfig) for TIM_Base_SetConfig
    stm32f4xx_hal_tim.o(i.HAL_TIM_PWM_Start) refers to stm32f4xx_hal_tim.o(i.TIM_CCxChannelCmd) for TIM_CCxChannelCmd
    stm32f4xx_hal_tim.o(i.HAL_TIM_PWM_Start_DMA) refers to stm32f4xx_hal_dma.o(i.HAL_DMA_Start_IT) for HAL_DMA_Start_IT
    stm32f4xx_hal_tim.o(i.HAL_TIM_PWM_Start_DMA) refers to stm32f4xx_hal_tim.o(i.TIM_CCxChannelCmd) for TIM_CCxChannelCmd
    stm32f4xx_hal_tim.o(i.HAL_TIM_PWM_Start_DMA) refers to stm32f4xx_hal_tim.o(i.TIM_DMADelayPulseCplt) for TIM_DMADelayPulseCplt
    stm32f4xx_hal_tim.o(i.HAL_TIM_PWM_Start_DMA) refers to stm32f4xx_hal_tim.o(i.TIM_DMAError) for TIM_DMAError
    stm32f4xx_hal_tim.o(i.HAL_TIM_PWM_Start_IT) refers to stm32f4xx_hal_tim.o(i.TIM_CCxChannelCmd) for TIM_CCxChannelCmd
    stm32f4xx_hal_tim.o(i.HAL_TIM_PWM_Stop) refers to stm32f4xx_hal_tim.o(i.TIM_CCxChannelCmd) for TIM_CCxChannelCmd
    stm32f4xx_hal_tim.o(i.HAL_TIM_PWM_Stop_DMA) refers to stm32f4xx_hal_tim.o(i.TIM_CCxChannelCmd) for TIM_CCxChannelCmd
    stm32f4xx_hal_tim.o(i.HAL_TIM_PWM_Stop_IT) refers to stm32f4xx_hal_tim.o(i.TIM_CCxChannelCmd) for TIM_CCxChannelCmd
    stm32f4xx_hal_tim.o(i.HAL_TIM_SlaveConfigSynchronization) refers to stm32f4xx_hal_tim.o(i.TIM_SlaveTimer_SetConfig) for TIM_SlaveTimer_SetConfig
    stm32f4xx_hal_tim.o(i.HAL_TIM_SlaveConfigSynchronization_IT) refers to stm32f4xx_hal_tim.o(i.TIM_SlaveTimer_SetConfig) for TIM_SlaveTimer_SetConfig
    stm32f4xx_hal_tim.o(i.TIM_DMACaptureCplt) refers to stm32f4xx_hal_tim.o(i.HAL_TIM_IC_CaptureCallback) for HAL_TIM_IC_CaptureCallback
    stm32f4xx_hal_tim.o(i.TIM_DMADelayPulseCplt) refers to stm32f4xx_hal_tim.o(i.HAL_TIM_PWM_PulseFinishedCallback) for HAL_TIM_PWM_PulseFinishedCallback
    stm32f4xx_hal_tim.o(i.TIM_DMAError) refers to stm32f4xx_hal_tim.o(i.HAL_TIM_ErrorCallback) for HAL_TIM_ErrorCallback
    stm32f4xx_hal_tim.o(i.TIM_DMAPeriodElapsedCplt) refers to stm32f4xx_hal_tim.o(i.HAL_TIM_PeriodElapsedCallback) for HAL_TIM_PeriodElapsedCallback
    stm32f4xx_hal_tim.o(i.TIM_DMATriggerCplt) refers to stm32f4xx_hal_tim.o(i.HAL_TIM_TriggerCallback) for HAL_TIM_TriggerCallback
    stm32f4xx_hal_tim.o(i.TIM_SlaveTimer_SetConfig) refers to stm32f4xx_hal_tim.o(i.TIM_ETR_SetConfig) for TIM_ETR_SetConfig
    stm32f4xx_hal_tim.o(i.TIM_SlaveTimer_SetConfig) refers to stm32f4xx_hal_tim.o(i.TIM_TI1_ConfigInputStage) for TIM_TI1_ConfigInputStage
    stm32f4xx_hal_tim.o(i.TIM_SlaveTimer_SetConfig) refers to stm32f4xx_hal_tim.o(i.TIM_TI2_ConfigInputStage) for TIM_TI2_ConfigInputStage
    stm32f4xx_hal_tim_ex.o(i.HAL_TIMEx_ConfigCommutationEvent_DMA) refers to stm32f4xx_hal_tim_ex.o(i.TIMEx_DMACommutationCplt) for TIMEx_DMACommutationCplt
    stm32f4xx_hal_tim_ex.o(i.HAL_TIMEx_ConfigCommutationEvent_DMA) refers to stm32f4xx_hal_tim.o(i.TIM_DMAError) for TIM_DMAError
    stm32f4xx_hal_tim_ex.o(i.HAL_TIMEx_HallSensor_DeInit) refers to stm32f4xx_hal_tim_ex.o(i.HAL_TIMEx_HallSensor_MspDeInit) for HAL_TIMEx_HallSensor_MspDeInit
    stm32f4xx_hal_tim_ex.o(i.HAL_TIMEx_HallSensor_Init) refers to stm32f4xx_hal_tim_ex.o(i.HAL_TIMEx_HallSensor_MspInit) for HAL_TIMEx_HallSensor_MspInit
    stm32f4xx_hal_tim_ex.o(i.HAL_TIMEx_HallSensor_Init) refers to stm32f4xx_hal_tim.o(i.TIM_Base_SetConfig) for TIM_Base_SetConfig
    stm32f4xx_hal_tim_ex.o(i.HAL_TIMEx_HallSensor_Init) refers to stm32f4xx_hal_tim.o(i.TIM_TI1_SetConfig) for TIM_TI1_SetConfig
    stm32f4xx_hal_tim_ex.o(i.HAL_TIMEx_HallSensor_Init) refers to stm32f4xx_hal_tim.o(i.TIM_OC2_SetConfig) for TIM_OC2_SetConfig
    stm32f4xx_hal_tim_ex.o(i.HAL_TIMEx_HallSensor_Start) refers to stm32f4xx_hal_tim.o(i.TIM_CCxChannelCmd) for TIM_CCxChannelCmd
    stm32f4xx_hal_tim_ex.o(i.HAL_TIMEx_HallSensor_Start_DMA) refers to stm32f4xx_hal_tim.o(i.TIM_CCxChannelCmd) for TIM_CCxChannelCmd
    stm32f4xx_hal_tim_ex.o(i.HAL_TIMEx_HallSensor_Start_DMA) refers to stm32f4xx_hal_dma.o(i.HAL_DMA_Start_IT) for HAL_DMA_Start_IT
    stm32f4xx_hal_tim_ex.o(i.HAL_TIMEx_HallSensor_Start_DMA) refers to stm32f4xx_hal_tim.o(i.TIM_DMACaptureCplt) for TIM_DMACaptureCplt
    stm32f4xx_hal_tim_ex.o(i.HAL_TIMEx_HallSensor_Start_DMA) refers to stm32f4xx_hal_tim.o(i.TIM_DMAError) for TIM_DMAError
    stm32f4xx_hal_tim_ex.o(i.HAL_TIMEx_HallSensor_Start_IT) refers to stm32f4xx_hal_tim.o(i.TIM_CCxChannelCmd) for TIM_CCxChannelCmd
    stm32f4xx_hal_tim_ex.o(i.HAL_TIMEx_HallSensor_Stop) refers to stm32f4xx_hal_tim.o(i.TIM_CCxChannelCmd) for TIM_CCxChannelCmd
    stm32f4xx_hal_tim_ex.o(i.HAL_TIMEx_HallSensor_Stop_DMA) refers to stm32f4xx_hal_tim.o(i.TIM_CCxChannelCmd) for TIM_CCxChannelCmd
    stm32f4xx_hal_tim_ex.o(i.HAL_TIMEx_HallSensor_Stop_IT) refers to stm32f4xx_hal_tim.o(i.TIM_CCxChannelCmd) for TIM_CCxChannelCmd
    stm32f4xx_hal_tim_ex.o(i.HAL_TIMEx_OCN_Start) refers to stm32f4xx_hal_tim_ex.o(i.TIM_CCxNChannelCmd) for TIM_CCxNChannelCmd
    stm32f4xx_hal_tim_ex.o(i.HAL_TIMEx_OCN_Start_DMA) refers to stm32f4xx_hal_dma.o(i.HAL_DMA_Start_IT) for HAL_DMA_Start_IT
    stm32f4xx_hal_tim_ex.o(i.HAL_TIMEx_OCN_Start_DMA) refers to stm32f4xx_hal_tim_ex.o(i.TIM_CCxNChannelCmd) for TIM_CCxNChannelCmd
    stm32f4xx_hal_tim_ex.o(i.HAL_TIMEx_OCN_Start_DMA) refers to stm32f4xx_hal_tim.o(i.TIM_DMADelayPulseCplt) for TIM_DMADelayPulseCplt
    stm32f4xx_hal_tim_ex.o(i.HAL_TIMEx_OCN_Start_DMA) refers to stm32f4xx_hal_tim.o(i.TIM_DMAError) for TIM_DMAError
    stm32f4xx_hal_tim_ex.o(i.HAL_TIMEx_OCN_Start_IT) refers to stm32f4xx_hal_tim_ex.o(i.TIM_CCxNChannelCmd) for TIM_CCxNChannelCmd
    stm32f4xx_hal_tim_ex.o(i.HAL_TIMEx_OCN_Stop) refers to stm32f4xx_hal_tim_ex.o(i.TIM_CCxNChannelCmd) for TIM_CCxNChannelCmd
    stm32f4xx_hal_tim_ex.o(i.HAL_TIMEx_OCN_Stop_DMA) refers to stm32f4xx_hal_tim_ex.o(i.TIM_CCxNChannelCmd) for TIM_CCxNChannelCmd
    stm32f4xx_hal_tim_ex.o(i.HAL_TIMEx_OCN_Stop_IT) refers to stm32f4xx_hal_tim_ex.o(i.TIM_CCxNChannelCmd) for TIM_CCxNChannelCmd
    stm32f4xx_hal_tim_ex.o(i.HAL_TIMEx_OnePulseN_Start) refers to stm32f4xx_hal_tim_ex.o(i.TIM_CCxNChannelCmd) for TIM_CCxNChannelCmd
    stm32f4xx_hal_tim_ex.o(i.HAL_TIMEx_OnePulseN_Start_IT) refers to stm32f4xx_hal_tim_ex.o(i.TIM_CCxNChannelCmd) for TIM_CCxNChannelCmd
    stm32f4xx_hal_tim_ex.o(i.HAL_TIMEx_OnePulseN_Stop) refers to stm32f4xx_hal_tim_ex.o(i.TIM_CCxNChannelCmd) for TIM_CCxNChannelCmd
    stm32f4xx_hal_tim_ex.o(i.HAL_TIMEx_OnePulseN_Stop_IT) refers to stm32f4xx_hal_tim_ex.o(i.TIM_CCxNChannelCmd) for TIM_CCxNChannelCmd
    stm32f4xx_hal_tim_ex.o(i.HAL_TIMEx_PWMN_Start) refers to stm32f4xx_hal_tim_ex.o(i.TIM_CCxNChannelCmd) for TIM_CCxNChannelCmd
    stm32f4xx_hal_tim_ex.o(i.HAL_TIMEx_PWMN_Start_DMA) refers to stm32f4xx_hal_dma.o(i.HAL_DMA_Start_IT) for HAL_DMA_Start_IT
    stm32f4xx_hal_tim_ex.o(i.HAL_TIMEx_PWMN_Start_DMA) refers to stm32f4xx_hal_tim_ex.o(i.TIM_CCxNChannelCmd) for TIM_CCxNChannelCmd
    stm32f4xx_hal_tim_ex.o(i.HAL_TIMEx_PWMN_Start_DMA) refers to stm32f4xx_hal_tim.o(i.TIM_DMADelayPulseCplt) for TIM_DMADelayPulseCplt
    stm32f4xx_hal_tim_ex.o(i.HAL_TIMEx_PWMN_Start_DMA) refers to stm32f4xx_hal_tim.o(i.TIM_DMAError) for TIM_DMAError
    stm32f4xx_hal_tim_ex.o(i.HAL_TIMEx_PWMN_Start_IT) refers to stm32f4xx_hal_tim_ex.o(i.TIM_CCxNChannelCmd) for TIM_CCxNChannelCmd
    stm32f4xx_hal_tim_ex.o(i.HAL_TIMEx_PWMN_Stop) refers to stm32f4xx_hal_tim_ex.o(i.TIM_CCxNChannelCmd) for TIM_CCxNChannelCmd
    stm32f4xx_hal_tim_ex.o(i.HAL_TIMEx_PWMN_Stop_DMA) refers to stm32f4xx_hal_tim_ex.o(i.TIM_CCxNChannelCmd) for TIM_CCxNChannelCmd
    stm32f4xx_hal_tim_ex.o(i.HAL_TIMEx_PWMN_Stop_IT) refers to stm32f4xx_hal_tim_ex.o(i.TIM_CCxNChannelCmd) for TIM_CCxNChannelCmd
    stm32f4xx_hal_tim_ex.o(i.TIMEx_DMACommutationCplt) refers to stm32f4xx_hal_tim_ex.o(i.HAL_TIMEx_CommutationCallback) for HAL_TIMEx_CommutationCallback
    stm32f4xx_hal.o(i.HAL_DeInit) refers to stm32f4xx_hal.o(i.HAL_MspDeInit) for HAL_MspDeInit
    stm32f4xx_hal.o(i.HAL_Delay) refers to stm32f4xx_hal.o(i.HAL_GetTick) for HAL_GetTick
    stm32f4xx_hal.o(i.HAL_GetTick) refers to stm32f4xx_hal.o(.data) for .data
    stm32f4xx_hal.o(i.HAL_IncTick) refers to stm32f4xx_hal.o(.data) for .data
    stm32f4xx_hal.o(i.HAL_Init) refers to stm32f4xx_hal_cortex.o(i.HAL_NVIC_SetPriorityGrouping) for HAL_NVIC_SetPriorityGrouping
    stm32f4xx_hal.o(i.HAL_Init) refers to stm32f4xx_hal.o(i.HAL_InitTick) for HAL_InitTick
    stm32f4xx_hal.o(i.HAL_Init) refers to stm32f4xx_hal_msp.o(i.HAL_MspInit) for HAL_MspInit
    stm32f4xx_hal.o(i.HAL_InitTick) refers to stm32f4xx_hal_cortex.o(i.HAL_SYSTICK_Config) for HAL_SYSTICK_Config
    stm32f4xx_hal.o(i.HAL_InitTick) refers to stm32f4xx_hal_cortex.o(i.HAL_NVIC_SetPriority) for HAL_NVIC_SetPriority
    stm32f4xx_hal.o(i.HAL_InitTick) refers to system_stm32f4xx.o(.data) for SystemCoreClock
    stm32f4xx_hal_rcc.o(i.HAL_RCC_ClockConfig) refers to stm32f4xx_hal.o(i.HAL_GetTick) for HAL_GetTick
    stm32f4xx_hal_rcc.o(i.HAL_RCC_ClockConfig) refers to stm32f4xx_hal_rcc.o(i.HAL_RCC_GetSysClockFreq) for HAL_RCC_GetSysClockFreq
    stm32f4xx_hal_rcc.o(i.HAL_RCC_ClockConfig) refers to stm32f4xx_hal.o(i.HAL_InitTick) for HAL_InitTick
    stm32f4xx_hal_rcc.o(i.HAL_RCC_ClockConfig) refers to system_stm32f4xx.o(.constdata) for AHBPrescTable
    stm32f4xx_hal_rcc.o(i.HAL_RCC_ClockConfig) refers to system_stm32f4xx.o(.data) for SystemCoreClock
    stm32f4xx_hal_rcc.o(i.HAL_RCC_GetHCLKFreq) refers to system_stm32f4xx.o(.data) for SystemCoreClock
    stm32f4xx_hal_rcc.o(i.HAL_RCC_GetPCLK1Freq) refers to system_stm32f4xx.o(.data) for SystemCoreClock
    stm32f4xx_hal_rcc.o(i.HAL_RCC_GetPCLK1Freq) refers to system_stm32f4xx.o(.constdata) for APBPrescTable
    stm32f4xx_hal_rcc.o(i.HAL_RCC_GetPCLK2Freq) refers to system_stm32f4xx.o(.data) for SystemCoreClock
    stm32f4xx_hal_rcc.o(i.HAL_RCC_GetPCLK2Freq) refers to system_stm32f4xx.o(.constdata) for APBPrescTable
    stm32f4xx_hal_rcc.o(i.HAL_RCC_MCOConfig) refers to stm32f4xx_hal_gpio.o(i.HAL_GPIO_Init) for HAL_GPIO_Init
    stm32f4xx_hal_rcc.o(i.HAL_RCC_NMI_IRQHandler) refers to stm32f4xx_hal_rcc.o(i.HAL_RCC_CSSCallback) for HAL_RCC_CSSCallback
    stm32f4xx_hal_rcc.o(i.HAL_RCC_OscConfig) refers to stm32f4xx_hal.o(i.HAL_GetTick) for HAL_GetTick
    stm32f4xx_hal_flash_ex.o(i.HAL_FLASHEx_Erase) refers to stm32f4xx_hal_flash.o(i.FLASH_WaitForLastOperation) for FLASH_WaitForLastOperation
    stm32f4xx_hal_flash_ex.o(i.HAL_FLASHEx_Erase) refers to stm32f4xx_hal_flash_ex.o(i.FLASH_MassErase) for FLASH_MassErase
    stm32f4xx_hal_flash_ex.o(i.HAL_FLASHEx_Erase) refers to stm32f4xx_hal_flash_ex.o(i.FLASH_Erase_Sector) for FLASH_Erase_Sector
    stm32f4xx_hal_flash_ex.o(i.HAL_FLASHEx_Erase) refers to stm32f4xx_hal_flash_ex.o(i.FLASH_FlushCaches) for FLASH_FlushCaches
    stm32f4xx_hal_flash_ex.o(i.HAL_FLASHEx_Erase) refers to stm32f4xx_hal_flash.o(.bss) for pFlash
    stm32f4xx_hal_flash_ex.o(i.HAL_FLASHEx_Erase_IT) refers to stm32f4xx_hal_flash_ex.o(i.FLASH_Erase_Sector) for FLASH_Erase_Sector
    stm32f4xx_hal_flash_ex.o(i.HAL_FLASHEx_Erase_IT) refers to stm32f4xx_hal_flash_ex.o(i.FLASH_MassErase) for FLASH_MassErase
    stm32f4xx_hal_flash_ex.o(i.HAL_FLASHEx_Erase_IT) refers to stm32f4xx_hal_flash.o(.bss) for pFlash
    stm32f4xx_hal_flash_ex.o(i.HAL_FLASHEx_OBProgram) refers to stm32f4xx_hal_flash.o(i.FLASH_WaitForLastOperation) for FLASH_WaitForLastOperation
    stm32f4xx_hal_flash_ex.o(i.HAL_FLASHEx_OBProgram) refers to stm32f4xx_hal_flash.o(.bss) for pFlash
    stm32f4xx_hal_gpio.o(i.HAL_GPIO_EXTI_IRQHandler) refers to stm32f4xx_hal_gpio.o(i.HAL_GPIO_EXTI_Callback) for HAL_GPIO_EXTI_Callback
    stm32f4xx_hal_pwr.o(i.HAL_PWR_PVD_IRQHandler) refers to stm32f4xx_hal_pwr.o(i.HAL_PWR_PVDCallback) for HAL_PWR_PVDCallback
    stm32f4xx_hal_cortex.o(i.HAL_NVIC_SetPriority) refers to stm32f4xx_hal_cortex.o(i.NVIC_SetPriority) for NVIC_SetPriority
    stm32f4xx_hal_cortex.o(i.HAL_SYSTICK_Config) refers to stm32f4xx_hal_cortex.o(i.NVIC_SetPriority) for NVIC_SetPriority
    stm32f4xx_hal_cortex.o(i.HAL_SYSTICK_IRQHandler) refers to stm32f4xx_hal_cortex.o(i.HAL_SYSTICK_Callback) for HAL_SYSTICK_Callback
    stm32f4xx_hal_rcc_ex.o(i.HAL_RCCEx_PeriphCLKConfig) refers to stm32f4xx_hal.o(i.HAL_GetTick) for HAL_GetTick
    stm32f4xx_hal_rcc_ex.o(i.HAL_RCC_DeInit) refers to system_stm32f4xx.o(.data) for SystemCoreClock
    stm32f4xx_hal_flash.o(i.FLASH_SetErrorCode) refers to stm32f4xx_hal_flash.o(.bss) for .bss
    stm32f4xx_hal_flash.o(i.FLASH_WaitForLastOperation) refers to stm32f4xx_hal.o(i.HAL_GetTick) for HAL_GetTick
    stm32f4xx_hal_flash.o(i.FLASH_WaitForLastOperation) refers to stm32f4xx_hal_flash.o(i.FLASH_SetErrorCode) for FLASH_SetErrorCode
    stm32f4xx_hal_flash.o(i.FLASH_WaitForLastOperation) refers to stm32f4xx_hal_flash.o(.bss) for .bss
    stm32f4xx_hal_flash.o(i.HAL_FLASH_GetError) refers to stm32f4xx_hal_flash.o(.bss) for .bss
    stm32f4xx_hal_flash.o(i.HAL_FLASH_IRQHandler) refers to stm32f4xx_hal_flash.o(i.FLASH_SetErrorCode) for FLASH_SetErrorCode
    stm32f4xx_hal_flash.o(i.HAL_FLASH_IRQHandler) refers to stm32f4xx_hal_flash.o(i.HAL_FLASH_OperationErrorCallback) for HAL_FLASH_OperationErrorCallback
    stm32f4xx_hal_flash.o(i.HAL_FLASH_IRQHandler) refers to stm32f4xx_hal_flash.o(i.HAL_FLASH_EndOfOperationCallback) for HAL_FLASH_EndOfOperationCallback
    stm32f4xx_hal_flash.o(i.HAL_FLASH_IRQHandler) refers to stm32f4xx_hal_flash_ex.o(i.FLASH_Erase_Sector) for FLASH_Erase_Sector
    stm32f4xx_hal_flash.o(i.HAL_FLASH_IRQHandler) refers to stm32f4xx_hal_flash_ex.o(i.FLASH_FlushCaches) for FLASH_FlushCaches
    stm32f4xx_hal_flash.o(i.HAL_FLASH_IRQHandler) refers to stm32f4xx_hal_flash.o(.bss) for .bss
    stm32f4xx_hal_flash.o(i.HAL_FLASH_OB_Launch) refers to stm32f4xx_hal_flash.o(i.FLASH_WaitForLastOperation) for FLASH_WaitForLastOperation
    stm32f4xx_hal_flash.o(i.HAL_FLASH_Program) refers to stm32f4xx_hal_flash.o(i.FLASH_WaitForLastOperation) for FLASH_WaitForLastOperation
    stm32f4xx_hal_flash.o(i.HAL_FLASH_Program) refers to stm32f4xx_hal_flash.o(i.FLASH_Program_DoubleWord) for FLASH_Program_DoubleWord
    stm32f4xx_hal_flash.o(i.HAL_FLASH_Program) refers to stm32f4xx_hal_flash.o(i.FLASH_Program_Byte) for FLASH_Program_Byte
    stm32f4xx_hal_flash.o(i.HAL_FLASH_Program) refers to stm32f4xx_hal_flash.o(i.FLASH_Program_HalfWord) for FLASH_Program_HalfWord
    stm32f4xx_hal_flash.o(i.HAL_FLASH_Program) refers to stm32f4xx_hal_flash.o(i.FLASH_Program_Word) for FLASH_Program_Word
    stm32f4xx_hal_flash.o(i.HAL_FLASH_Program) refers to stm32f4xx_hal_flash.o(.bss) for .bss
    stm32f4xx_hal_flash.o(i.HAL_FLASH_Program_IT) refers to stm32f4xx_hal_flash.o(i.FLASH_Program_DoubleWord) for FLASH_Program_DoubleWord
    stm32f4xx_hal_flash.o(i.HAL_FLASH_Program_IT) refers to stm32f4xx_hal_flash.o(i.FLASH_Program_Byte) for FLASH_Program_Byte
    stm32f4xx_hal_flash.o(i.HAL_FLASH_Program_IT) refers to stm32f4xx_hal_flash.o(i.FLASH_Program_HalfWord) for FLASH_Program_HalfWord
    stm32f4xx_hal_flash.o(i.HAL_FLASH_Program_IT) refers to stm32f4xx_hal_flash.o(i.FLASH_Program_Word) for FLASH_Program_Word
    stm32f4xx_hal_flash.o(i.HAL_FLASH_Program_IT) refers to stm32f4xx_hal_flash.o(.bss) for .bss
    stm32f4xx_hal_spi.o(i.HAL_SPI_Abort) refers to stm32f4xx_hal_dma.o(i.HAL_DMA_Abort) for HAL_DMA_Abort
    stm32f4xx_hal_spi.o(i.HAL_SPI_Abort) refers to system_stm32f4xx.o(.data) for SystemCoreClock
    stm32f4xx_hal_spi.o(i.HAL_SPI_Abort) refers to stm32f4xx_hal_spi.o(i.SPI_AbortTx_ISR) for SPI_AbortTx_ISR
    stm32f4xx_hal_spi.o(i.HAL_SPI_Abort) refers to stm32f4xx_hal_spi.o(i.SPI_AbortRx_ISR) for SPI_AbortRx_ISR
    stm32f4xx_hal_spi.o(i.HAL_SPI_Abort_IT) refers to stm32f4xx_hal_dma.o(i.HAL_DMA_Abort_IT) for HAL_DMA_Abort_IT
    stm32f4xx_hal_spi.o(i.HAL_SPI_Abort_IT) refers to stm32f4xx_hal_spi.o(i.HAL_SPI_AbortCpltCallback) for HAL_SPI_AbortCpltCallback
    stm32f4xx_hal_spi.o(i.HAL_SPI_Abort_IT) refers to stm32f4xx_hal_spi.o(i.SPI_AbortTx_ISR) for SPI_AbortTx_ISR
    stm32f4xx_hal_spi.o(i.HAL_SPI_Abort_IT) refers to stm32f4xx_hal_spi.o(i.SPI_AbortRx_ISR) for SPI_AbortRx_ISR
    stm32f4xx_hal_spi.o(i.HAL_SPI_Abort_IT) refers to stm32f4xx_hal_spi.o(i.SPI_DMATxAbortCallback) for SPI_DMATxAbortCallback
    stm32f4xx_hal_spi.o(i.HAL_SPI_Abort_IT) refers to stm32f4xx_hal_spi.o(i.SPI_DMARxAbortCallback) for SPI_DMARxAbortCallback
    stm32f4xx_hal_spi.o(i.HAL_SPI_DMAStop) refers to stm32f4xx_hal_dma.o(i.HAL_DMA_Abort) for HAL_DMA_Abort
    stm32f4xx_hal_spi.o(i.HAL_SPI_DeInit) refers to stm32f4xx_hal_msp.o(i.HAL_SPI_MspDeInit) for HAL_SPI_MspDeInit
    stm32f4xx_hal_spi.o(i.HAL_SPI_IRQHandler) refers to stm32f4xx_hal_dma.o(i.HAL_DMA_Abort_IT) for HAL_DMA_Abort_IT
    stm32f4xx_hal_spi.o(i.HAL_SPI_IRQHandler) refers to stm32f4xx_hal_spi.o(i.HAL_SPI_ErrorCallback) for HAL_SPI_ErrorCallback
    stm32f4xx_hal_spi.o(i.HAL_SPI_IRQHandler) refers to stm32f4xx_hal_spi.o(i.SPI_DMAAbortOnError) for SPI_DMAAbortOnError
    stm32f4xx_hal_spi.o(i.HAL_SPI_Init) refers to stm32f4xx_hal_msp.o(i.HAL_SPI_MspInit) for HAL_SPI_MspInit
    stm32f4xx_hal_spi.o(i.HAL_SPI_Receive) refers to stm32f4xx_hal.o(i.HAL_GetTick) for HAL_GetTick
    stm32f4xx_hal_spi.o(i.HAL_SPI_Receive) refers to stm32f4xx_hal_spi.o(i.HAL_SPI_TransmitReceive) for HAL_SPI_TransmitReceive
    stm32f4xx_hal_spi.o(i.HAL_SPI_Receive_DMA) refers to stm32f4xx_hal_spi.o(i.HAL_SPI_TransmitReceive_DMA) for HAL_SPI_TransmitReceive_DMA
    stm32f4xx_hal_spi.o(i.HAL_SPI_Receive_DMA) refers to stm32f4xx_hal_dma.o(i.HAL_DMA_Start_IT) for HAL_DMA_Start_IT
    stm32f4xx_hal_spi.o(i.HAL_SPI_Receive_DMA) refers to stm32f4xx_hal_spi.o(i.SPI_DMAHalfReceiveCplt) for SPI_DMAHalfReceiveCplt
    stm32f4xx_hal_spi.o(i.HAL_SPI_Receive_DMA) refers to stm32f4xx_hal_spi.o(i.SPI_DMAReceiveCplt) for SPI_DMAReceiveCplt
    stm32f4xx_hal_spi.o(i.HAL_SPI_Receive_DMA) refers to stm32f4xx_hal_spi.o(i.SPI_DMAError) for SPI_DMAError
    stm32f4xx_hal_spi.o(i.HAL_SPI_Receive_IT) refers to stm32f4xx_hal_spi.o(i.HAL_SPI_TransmitReceive_IT) for HAL_SPI_TransmitReceive_IT
    stm32f4xx_hal_spi.o(i.HAL_SPI_Receive_IT) refers to stm32f4xx_hal_spi.o(i.SPI_RxISR_16BIT) for SPI_RxISR_16BIT
    stm32f4xx_hal_spi.o(i.HAL_SPI_Receive_IT) refers to stm32f4xx_hal_spi.o(i.SPI_RxISR_8BIT) for SPI_RxISR_8BIT
    stm32f4xx_hal_spi.o(i.HAL_SPI_Transmit) refers to stm32f4xx_hal.o(i.HAL_GetTick) for HAL_GetTick
    stm32f4xx_hal_spi.o(i.HAL_SPI_Transmit) refers to stm32f4xx_hal_spi.o(i.SPI_WaitFlagStateUntilTimeout) for SPI_WaitFlagStateUntilTimeout
    stm32f4xx_hal_spi.o(i.HAL_SPI_Transmit) refers to stm32f4xx_hal_spi.o(i.SPI_CheckFlag_BSY) for SPI_CheckFlag_BSY
    stm32f4xx_hal_spi.o(i.HAL_SPI_TransmitReceive) refers to stm32f4xx_hal.o(i.HAL_GetTick) for HAL_GetTick
    stm32f4xx_hal_spi.o(i.HAL_SPI_TransmitReceive) refers to stm32f4xx_hal_spi.o(i.SPI_WaitFlagStateUntilTimeout) for SPI_WaitFlagStateUntilTimeout
    stm32f4xx_hal_spi.o(i.HAL_SPI_TransmitReceive) refers to stm32f4xx_hal_spi.o(i.SPI_CheckFlag_BSY) for SPI_CheckFlag_BSY
    stm32f4xx_hal_spi.o(i.HAL_SPI_TransmitReceive_DMA) refers to stm32f4xx_hal_dma.o(i.HAL_DMA_Start_IT) for HAL_DMA_Start_IT
    stm32f4xx_hal_spi.o(i.HAL_SPI_TransmitReceive_DMA) refers to stm32f4xx_hal_spi.o(i.SPI_DMAHalfTransmitReceiveCplt) for SPI_DMAHalfTransmitReceiveCplt
    stm32f4xx_hal_spi.o(i.HAL_SPI_TransmitReceive_DMA) refers to stm32f4xx_hal_spi.o(i.SPI_DMATransmitReceiveCplt) for SPI_DMATransmitReceiveCplt
    stm32f4xx_hal_spi.o(i.HAL_SPI_TransmitReceive_DMA) refers to stm32f4xx_hal_spi.o(i.SPI_DMAError) for SPI_DMAError
    stm32f4xx_hal_spi.o(i.HAL_SPI_TransmitReceive_DMA) refers to stm32f4xx_hal_spi.o(i.SPI_DMAHalfReceiveCplt) for SPI_DMAHalfReceiveCplt
    stm32f4xx_hal_spi.o(i.HAL_SPI_TransmitReceive_DMA) refers to stm32f4xx_hal_spi.o(i.SPI_DMAReceiveCplt) for SPI_DMAReceiveCplt
    stm32f4xx_hal_spi.o(i.HAL_SPI_TransmitReceive_IT) refers to stm32f4xx_hal_spi.o(i.SPI_2linesRxISR_16BIT) for SPI_2linesRxISR_16BIT
    stm32f4xx_hal_spi.o(i.HAL_SPI_TransmitReceive_IT) refers to stm32f4xx_hal_spi.o(i.SPI_2linesTxISR_16BIT) for SPI_2linesTxISR_16BIT
    stm32f4xx_hal_spi.o(i.HAL_SPI_TransmitReceive_IT) refers to stm32f4xx_hal_spi.o(i.SPI_2linesRxISR_8BIT) for SPI_2linesRxISR_8BIT
    stm32f4xx_hal_spi.o(i.HAL_SPI_TransmitReceive_IT) refers to stm32f4xx_hal_spi.o(i.SPI_2linesTxISR_8BIT) for SPI_2linesTxISR_8BIT
    stm32f4xx_hal_spi.o(i.HAL_SPI_Transmit_DMA) refers to stm32f4xx_hal_dma.o(i.HAL_DMA_Start_IT) for HAL_DMA_Start_IT
    stm32f4xx_hal_spi.o(i.HAL_SPI_Transmit_DMA) refers to stm32f4xx_hal_spi.o(i.SPI_DMAHalfTransmitCplt) for SPI_DMAHalfTransmitCplt
    stm32f4xx_hal_spi.o(i.HAL_SPI_Transmit_DMA) refers to stm32f4xx_hal_spi.o(i.SPI_DMATransmitCplt) for SPI_DMATransmitCplt
    stm32f4xx_hal_spi.o(i.HAL_SPI_Transmit_DMA) refers to stm32f4xx_hal_spi.o(i.SPI_DMAError) for SPI_DMAError
    stm32f4xx_hal_spi.o(i.HAL_SPI_Transmit_IT) refers to stm32f4xx_hal_spi.o(i.SPI_TxISR_16BIT) for SPI_TxISR_16BIT
    stm32f4xx_hal_spi.o(i.HAL_SPI_Transmit_IT) refers to stm32f4xx_hal_spi.o(i.SPI_TxISR_8BIT) for SPI_TxISR_8BIT
    stm32f4xx_hal_spi.o(i.SPI_2linesRxISR_16BIT) refers to stm32f4xx_hal_spi.o(i.SPI_CloseRxTx_ISR) for SPI_CloseRxTx_ISR
    stm32f4xx_hal_spi.o(i.SPI_2linesRxISR_8BIT) refers to stm32f4xx_hal_spi.o(i.SPI_CloseRxTx_ISR) for SPI_CloseRxTx_ISR
    stm32f4xx_hal_spi.o(i.SPI_2linesTxISR_16BIT) refers to stm32f4xx_hal_spi.o(i.SPI_CloseRxTx_ISR) for SPI_CloseRxTx_ISR
    stm32f4xx_hal_spi.o(i.SPI_2linesTxISR_8BIT) refers to stm32f4xx_hal_spi.o(i.SPI_CloseRxTx_ISR) for SPI_CloseRxTx_ISR
    stm32f4xx_hal_spi.o(i.SPI_AbortRx_ISR) refers to system_stm32f4xx.o(.data) for SystemCoreClock
    stm32f4xx_hal_spi.o(i.SPI_CheckFlag_BSY) refers to stm32f4xx_hal_spi.o(i.SPI_WaitFlagStateUntilTimeout) for SPI_WaitFlagStateUntilTimeout
    stm32f4xx_hal_spi.o(i.SPI_CloseRxTx_ISR) refers to stm32f4xx_hal.o(i.HAL_GetTick) for HAL_GetTick
    stm32f4xx_hal_spi.o(i.SPI_CloseRxTx_ISR) refers to stm32f4xx_hal_spi.o(i.SPI_CheckFlag_BSY) for SPI_CheckFlag_BSY
    stm32f4xx_hal_spi.o(i.SPI_CloseRxTx_ISR) refers to stm32f4xx_hal_spi.o(i.HAL_SPI_ErrorCallback) for HAL_SPI_ErrorCallback
    stm32f4xx_hal_spi.o(i.SPI_CloseRxTx_ISR) refers to stm32f4xx_hal_spi.o(i.HAL_SPI_TxRxCpltCallback) for HAL_SPI_TxRxCpltCallback
    stm32f4xx_hal_spi.o(i.SPI_CloseRxTx_ISR) refers to stm32f4xx_hal_spi.o(i.HAL_SPI_RxCpltCallback) for HAL_SPI_RxCpltCallback
    stm32f4xx_hal_spi.o(i.SPI_CloseRxTx_ISR) refers to system_stm32f4xx.o(.data) for SystemCoreClock
    stm32f4xx_hal_spi.o(i.SPI_CloseRx_ISR) refers to stm32f4xx_hal_spi.o(i.HAL_SPI_ErrorCallback) for HAL_SPI_ErrorCallback
    stm32f4xx_hal_spi.o(i.SPI_CloseRx_ISR) refers to stm32f4xx_hal_spi.o(i.HAL_SPI_RxCpltCallback) for HAL_SPI_RxCpltCallback
    stm32f4xx_hal_spi.o(i.SPI_CloseTx_ISR) refers to stm32f4xx_hal.o(i.HAL_GetTick) for HAL_GetTick
    stm32f4xx_hal_spi.o(i.SPI_CloseTx_ISR) refers to stm32f4xx_hal_spi.o(i.SPI_CheckFlag_BSY) for SPI_CheckFlag_BSY
    stm32f4xx_hal_spi.o(i.SPI_CloseTx_ISR) refers to stm32f4xx_hal_spi.o(i.HAL_SPI_ErrorCallback) for HAL_SPI_ErrorCallback
    stm32f4xx_hal_spi.o(i.SPI_CloseTx_ISR) refers to stm32f4xx_hal_spi.o(i.HAL_SPI_TxCpltCallback) for HAL_SPI_TxCpltCallback
    stm32f4xx_hal_spi.o(i.SPI_CloseTx_ISR) refers to system_stm32f4xx.o(.data) for SystemCoreClock
    stm32f4xx_hal_spi.o(i.SPI_DMAAbortOnError) refers to stm32f4xx_hal_spi.o(i.HAL_SPI_ErrorCallback) for HAL_SPI_ErrorCallback
    stm32f4xx_hal_spi.o(i.SPI_DMAError) refers to stm32f4xx_hal_spi.o(i.HAL_SPI_ErrorCallback) for HAL_SPI_ErrorCallback
    stm32f4xx_hal_spi.o(i.SPI_DMAHalfReceiveCplt) refers to stm32f4xx_hal_spi.o(i.HAL_SPI_RxHalfCpltCallback) for HAL_SPI_RxHalfCpltCallback
    stm32f4xx_hal_spi.o(i.SPI_DMAHalfTransmitCplt) refers to stm32f4xx_hal_spi.o(i.HAL_SPI_TxHalfCpltCallback) for HAL_SPI_TxHalfCpltCallback
    stm32f4xx_hal_spi.o(i.SPI_DMAHalfTransmitReceiveCplt) refers to stm32f4xx_hal_spi.o(i.HAL_SPI_TxRxHalfCpltCallback) for HAL_SPI_TxRxHalfCpltCallback
    stm32f4xx_hal_spi.o(i.SPI_DMAReceiveCplt) refers to stm32f4xx_hal_spi.o(i.HAL_SPI_ErrorCallback) for HAL_SPI_ErrorCallback
    stm32f4xx_hal_spi.o(i.SPI_DMAReceiveCplt) refers to stm32f4xx_hal_spi.o(i.HAL_SPI_RxCpltCallback) for HAL_SPI_RxCpltCallback
    stm32f4xx_hal_spi.o(i.SPI_DMARxAbortCallback) refers to stm32f4xx_hal_spi.o(i.HAL_SPI_AbortCpltCallback) for HAL_SPI_AbortCpltCallback
    stm32f4xx_hal_spi.o(i.SPI_DMATransmitCplt) refers to stm32f4xx_hal.o(i.HAL_GetTick) for HAL_GetTick
    stm32f4xx_hal_spi.o(i.SPI_DMATransmitCplt) refers to stm32f4xx_hal_spi.o(i.SPI_CheckFlag_BSY) for SPI_CheckFlag_BSY
    stm32f4xx_hal_spi.o(i.SPI_DMATransmitCplt) refers to stm32f4xx_hal_spi.o(i.HAL_SPI_ErrorCallback) for HAL_SPI_ErrorCallback
    stm32f4xx_hal_spi.o(i.SPI_DMATransmitCplt) refers to stm32f4xx_hal_spi.o(i.HAL_SPI_TxCpltCallback) for HAL_SPI_TxCpltCallback
    stm32f4xx_hal_spi.o(i.SPI_DMATransmitReceiveCplt) refers to stm32f4xx_hal.o(i.HAL_GetTick) for HAL_GetTick
    stm32f4xx_hal_spi.o(i.SPI_DMATransmitReceiveCplt) refers to stm32f4xx_hal_spi.o(i.SPI_CheckFlag_BSY) for SPI_CheckFlag_BSY
    stm32f4xx_hal_spi.o(i.SPI_DMATransmitReceiveCplt) refers to stm32f4xx_hal_spi.o(i.HAL_SPI_ErrorCallback) for HAL_SPI_ErrorCallback
    stm32f4xx_hal_spi.o(i.SPI_DMATransmitReceiveCplt) refers to stm32f4xx_hal_spi.o(i.HAL_SPI_TxRxCpltCallback) for HAL_SPI_TxRxCpltCallback
    stm32f4xx_hal_spi.o(i.SPI_DMATxAbortCallback) refers to stm32f4xx_hal_spi.o(i.HAL_SPI_AbortCpltCallback) for HAL_SPI_AbortCpltCallback
    stm32f4xx_hal_spi.o(i.SPI_DMATxAbortCallback) refers to system_stm32f4xx.o(.data) for SystemCoreClock
    stm32f4xx_hal_spi.o(i.SPI_RxISR_16BIT) refers to stm32f4xx_hal_spi.o(i.SPI_CloseRx_ISR) for SPI_CloseRx_ISR
    stm32f4xx_hal_spi.o(i.SPI_RxISR_8BIT) refers to stm32f4xx_hal_spi.o(i.SPI_CloseRx_ISR) for SPI_CloseRx_ISR
    stm32f4xx_hal_spi.o(i.SPI_TxISR_16BIT) refers to stm32f4xx_hal_spi.o(i.SPI_CloseTx_ISR) for SPI_CloseTx_ISR
    stm32f4xx_hal_spi.o(i.SPI_TxISR_8BIT) refers to stm32f4xx_hal_spi.o(i.SPI_CloseTx_ISR) for SPI_CloseTx_ISR
    stm32f4xx_hal_spi.o(i.SPI_WaitFlagStateUntilTimeout) refers to stm32f4xx_hal.o(i.HAL_GetTick) for HAL_GetTick
    stm32f4xx_hal_dma_ex.o(i.HAL_DMAEx_MultiBufferStart) refers to stm32f4xx_hal_dma_ex.o(i.DMA_MultiBufferSetConfig) for DMA_MultiBufferSetConfig
    stm32f4xx_hal_dma_ex.o(i.HAL_DMAEx_MultiBufferStart_IT) refers to stm32f4xx_hal_dma_ex.o(i.DMA_MultiBufferSetConfig) for DMA_MultiBufferSetConfig
    stm32f4xx_hal_pwr_ex.o(i.HAL_PWREx_ControlVoltageScaling) refers to stm32f4xx_hal.o(i.HAL_GetTick) for HAL_GetTick
    stm32f4xx_hal_pwr_ex.o(i.HAL_PWREx_DisableBkUpReg) refers to stm32f4xx_hal.o(i.HAL_GetTick) for HAL_GetTick
    stm32f4xx_hal_pwr_ex.o(i.HAL_PWREx_EnableBkUpReg) refers to stm32f4xx_hal.o(i.HAL_GetTick) for HAL_GetTick
    stm32f4xx_hal_i2c.o(i.HAL_I2C_DeInit) refers to stm32f4xx_hal_msp.o(i.HAL_I2C_MspDeInit) for HAL_I2C_MspDeInit
    stm32f4xx_hal_i2c.o(i.HAL_I2C_ER_IRQHandler) refers to stm32f4xx_hal_i2c.o(i.I2C_Slave_AF) for I2C_Slave_AF
    stm32f4xx_hal_i2c.o(i.HAL_I2C_ER_IRQHandler) refers to stm32f4xx_hal_i2c.o(i.I2C_ITError) for I2C_ITError
    stm32f4xx_hal_i2c.o(i.HAL_I2C_EV_IRQHandler) refers to stm32f4xx_hal_i2c.o(i.I2C_Master_SB) for I2C_Master_SB
    stm32f4xx_hal_i2c.o(i.HAL_I2C_EV_IRQHandler) refers to stm32f4xx_hal_i2c.o(i.I2C_Master_ADDR) for I2C_Master_ADDR
    stm32f4xx_hal_i2c.o(i.HAL_I2C_EV_IRQHandler) refers to stm32f4xx_hal_i2c.o(i.I2C_MasterTransmit_TXE) for I2C_MasterTransmit_TXE
    stm32f4xx_hal_i2c.o(i.HAL_I2C_EV_IRQHandler) refers to stm32f4xx_hal_i2c.o(i.I2C_MasterTransmit_BTF) for I2C_MasterTransmit_BTF
    stm32f4xx_hal_i2c.o(i.HAL_I2C_EV_IRQHandler) refers to stm32f4xx_hal_i2c.o(i.I2C_MasterReceive_RXNE) for I2C_MasterReceive_RXNE
    stm32f4xx_hal_i2c.o(i.HAL_I2C_EV_IRQHandler) refers to stm32f4xx_hal_i2c.o(i.I2C_MasterReceive_BTF) for I2C_MasterReceive_BTF
    stm32f4xx_hal_i2c.o(i.HAL_I2C_EV_IRQHandler) refers to stm32f4xx_hal_i2c.o(i.HAL_I2C_AddrCallback) for HAL_I2C_AddrCallback
    stm32f4xx_hal_i2c.o(i.HAL_I2C_EV_IRQHandler) refers to stm32f4xx_hal_i2c.o(i.I2C_Slave_STOPF) for I2C_Slave_STOPF
    stm32f4xx_hal_i2c.o(i.HAL_I2C_EV_IRQHandler) refers to stm32f4xx_hal_i2c.o(i.HAL_I2C_SlaveTxCpltCallback) for HAL_I2C_SlaveTxCpltCallback
    stm32f4xx_hal_i2c.o(i.HAL_I2C_EV_IRQHandler) refers to stm32f4xx_hal_i2c.o(i.HAL_I2C_SlaveRxCpltCallback) for HAL_I2C_SlaveRxCpltCallback
    stm32f4xx_hal_i2c.o(i.HAL_I2C_Init) refers to stm32f4xx_hal_msp.o(i.HAL_I2C_MspInit) for HAL_I2C_MspInit
    stm32f4xx_hal_i2c.o(i.HAL_I2C_Init) refers to stm32f4xx_hal_rcc.o(i.HAL_RCC_GetPCLK1Freq) for HAL_RCC_GetPCLK1Freq
    stm32f4xx_hal_i2c.o(i.HAL_I2C_IsDeviceReady) refers to stm32f4xx_hal.o(i.HAL_GetTick) for HAL_GetTick
    stm32f4xx_hal_i2c.o(i.HAL_I2C_IsDeviceReady) refers to stm32f4xx_hal_i2c.o(i.I2C_WaitOnFlagUntilTimeout) for I2C_WaitOnFlagUntilTimeout
    stm32f4xx_hal_i2c.o(i.HAL_I2C_Master_Abort_IT) refers to stm32f4xx_hal_i2c.o(i.I2C_ITError) for I2C_ITError
    stm32f4xx_hal_i2c.o(i.HAL_I2C_Master_Receive) refers to stm32f4xx_hal.o(i.HAL_GetTick) for HAL_GetTick
    stm32f4xx_hal_i2c.o(i.HAL_I2C_Master_Receive) refers to stm32f4xx_hal_i2c.o(i.I2C_WaitOnFlagUntilTimeout) for I2C_WaitOnFlagUntilTimeout
    stm32f4xx_hal_i2c.o(i.HAL_I2C_Master_Receive) refers to stm32f4xx_hal_i2c.o(i.I2C_MasterRequestRead) for I2C_MasterRequestRead
    stm32f4xx_hal_i2c.o(i.HAL_I2C_Master_Receive) refers to stm32f4xx_hal_i2c.o(i.I2C_WaitOnRXNEFlagUntilTimeout) for I2C_WaitOnRXNEFlagUntilTimeout
    stm32f4xx_hal_i2c.o(i.HAL_I2C_Master_Receive_DMA) refers to stm32f4xx_hal_dma.o(i.HAL_DMA_Start_IT) for HAL_DMA_Start_IT
    stm32f4xx_hal_i2c.o(i.HAL_I2C_Master_Receive_DMA) refers to system_stm32f4xx.o(.data) for SystemCoreClock
    stm32f4xx_hal_i2c.o(i.HAL_I2C_Master_Receive_DMA) refers to stm32f4xx_hal_i2c.o(i.I2C_DMAXferCplt) for I2C_DMAXferCplt
    stm32f4xx_hal_i2c.o(i.HAL_I2C_Master_Receive_DMA) refers to stm32f4xx_hal_i2c.o(i.I2C_DMAError) for I2C_DMAError
    stm32f4xx_hal_i2c.o(i.HAL_I2C_Master_Receive_IT) refers to system_stm32f4xx.o(.data) for SystemCoreClock
    stm32f4xx_hal_i2c.o(i.HAL_I2C_Master_Sequential_Receive_IT) refers to system_stm32f4xx.o(.data) for SystemCoreClock
    stm32f4xx_hal_i2c.o(i.HAL_I2C_Master_Sequential_Transmit_IT) refers to system_stm32f4xx.o(.data) for SystemCoreClock
    stm32f4xx_hal_i2c.o(i.HAL_I2C_Master_Transmit) refers to stm32f4xx_hal.o(i.HAL_GetTick) for HAL_GetTick
    stm32f4xx_hal_i2c.o(i.HAL_I2C_Master_Transmit) refers to stm32f4xx_hal_i2c.o(i.I2C_WaitOnFlagUntilTimeout) for I2C_WaitOnFlagUntilTimeout
    stm32f4xx_hal_i2c.o(i.HAL_I2C_Master_Transmit) refers to stm32f4xx_hal_i2c.o(i.I2C_MasterRequestWrite) for I2C_MasterRequestWrite
    stm32f4xx_hal_i2c.o(i.HAL_I2C_Master_Transmit) refers to stm32f4xx_hal_i2c.o(i.I2C_WaitOnTXEFlagUntilTimeout) for I2C_WaitOnTXEFlagUntilTimeout
    stm32f4xx_hal_i2c.o(i.HAL_I2C_Master_Transmit) refers to stm32f4xx_hal_i2c.o(i.I2C_WaitOnBTFFlagUntilTimeout) for I2C_WaitOnBTFFlagUntilTimeout
    stm32f4xx_hal_i2c.o(i.HAL_I2C_Master_Transmit_DMA) refers to stm32f4xx_hal_dma.o(i.HAL_DMA_Start_IT) for HAL_DMA_Start_IT
    stm32f4xx_hal_i2c.o(i.HAL_I2C_Master_Transmit_DMA) refers to system_stm32f4xx.o(.data) for SystemCoreClock
    stm32f4xx_hal_i2c.o(i.HAL_I2C_Master_Transmit_DMA) refers to stm32f4xx_hal_i2c.o(i.I2C_DMAXferCplt) for I2C_DMAXferCplt
    stm32f4xx_hal_i2c.o(i.HAL_I2C_Master_Transmit_DMA) refers to stm32f4xx_hal_i2c.o(i.I2C_DMAError) for I2C_DMAError
    stm32f4xx_hal_i2c.o(i.HAL_I2C_Master_Transmit_IT) refers to system_stm32f4xx.o(.data) for SystemCoreClock
    stm32f4xx_hal_i2c.o(i.HAL_I2C_Mem_Read) refers to stm32f4xx_hal.o(i.HAL_GetTick) for HAL_GetTick
    stm32f4xx_hal_i2c.o(i.HAL_I2C_Mem_Read) refers to stm32f4xx_hal_i2c.o(i.I2C_WaitOnFlagUntilTimeout) for I2C_WaitOnFlagUntilTimeout
    stm32f4xx_hal_i2c.o(i.HAL_I2C_Mem_Read) refers to stm32f4xx_hal_i2c.o(i.I2C_RequestMemoryRead) for I2C_RequestMemoryRead
    stm32f4xx_hal_i2c.o(i.HAL_I2C_Mem_Read) refers to stm32f4xx_hal_i2c.o(i.I2C_WaitOnRXNEFlagUntilTimeout) for I2C_WaitOnRXNEFlagUntilTimeout
    stm32f4xx_hal_i2c.o(i.HAL_I2C_Mem_Read_DMA) refers to stm32f4xx_hal.o(i.HAL_GetTick) for HAL_GetTick
    stm32f4xx_hal_i2c.o(i.HAL_I2C_Mem_Read_DMA) refers to stm32f4xx_hal_dma.o(i.HAL_DMA_Start_IT) for HAL_DMA_Start_IT
    stm32f4xx_hal_i2c.o(i.HAL_I2C_Mem_Read_DMA) refers to stm32f4xx_hal_i2c.o(i.I2C_RequestMemoryRead) for I2C_RequestMemoryRead
    stm32f4xx_hal_i2c.o(i.HAL_I2C_Mem_Read_DMA) refers to system_stm32f4xx.o(.data) for SystemCoreClock
    stm32f4xx_hal_i2c.o(i.HAL_I2C_Mem_Read_DMA) refers to stm32f4xx_hal_i2c.o(i.I2C_DMAXferCplt) for I2C_DMAXferCplt
    stm32f4xx_hal_i2c.o(i.HAL_I2C_Mem_Read_DMA) refers to stm32f4xx_hal_i2c.o(i.I2C_DMAError) for I2C_DMAError
    stm32f4xx_hal_i2c.o(i.HAL_I2C_Mem_Read_IT) refers to system_stm32f4xx.o(.data) for SystemCoreClock
    stm32f4xx_hal_i2c.o(i.HAL_I2C_Mem_Write) refers to stm32f4xx_hal.o(i.HAL_GetTick) for HAL_GetTick
    stm32f4xx_hal_i2c.o(i.HAL_I2C_Mem_Write) refers to stm32f4xx_hal_i2c.o(i.I2C_WaitOnFlagUntilTimeout) for I2C_WaitOnFlagUntilTimeout
    stm32f4xx_hal_i2c.o(i.HAL_I2C_Mem_Write) refers to stm32f4xx_hal_i2c.o(i.I2C_RequestMemoryWrite) for I2C_RequestMemoryWrite
    stm32f4xx_hal_i2c.o(i.HAL_I2C_Mem_Write) refers to stm32f4xx_hal_i2c.o(i.I2C_WaitOnTXEFlagUntilTimeout) for I2C_WaitOnTXEFlagUntilTimeout
    stm32f4xx_hal_i2c.o(i.HAL_I2C_Mem_Write) refers to stm32f4xx_hal_i2c.o(i.I2C_WaitOnBTFFlagUntilTimeout) for I2C_WaitOnBTFFlagUntilTimeout
    stm32f4xx_hal_i2c.o(i.HAL_I2C_Mem_Write_DMA) refers to stm32f4xx_hal.o(i.HAL_GetTick) for HAL_GetTick
    stm32f4xx_hal_i2c.o(i.HAL_I2C_Mem_Write_DMA) refers to stm32f4xx_hal_dma.o(i.HAL_DMA_Start_IT) for HAL_DMA_Start_IT
    stm32f4xx_hal_i2c.o(i.HAL_I2C_Mem_Write_DMA) refers to stm32f4xx_hal_i2c.o(i.I2C_RequestMemoryWrite) for I2C_RequestMemoryWrite
    stm32f4xx_hal_i2c.o(i.HAL_I2C_Mem_Write_DMA) refers to system_stm32f4xx.o(.data) for SystemCoreClock
    stm32f4xx_hal_i2c.o(i.HAL_I2C_Mem_Write_DMA) refers to stm32f4xx_hal_i2c.o(i.I2C_DMAXferCplt) for I2C_DMAXferCplt
    stm32f4xx_hal_i2c.o(i.HAL_I2C_Mem_Write_DMA) refers to stm32f4xx_hal_i2c.o(i.I2C_DMAError) for I2C_DMAError
    stm32f4xx_hal_i2c.o(i.HAL_I2C_Mem_Write_IT) refers to system_stm32f4xx.o(.data) for SystemCoreClock
    stm32f4xx_hal_i2c.o(i.HAL_I2C_Slave_Receive) refers to stm32f4xx_hal.o(i.HAL_GetTick) for HAL_GetTick
    stm32f4xx_hal_i2c.o(i.HAL_I2C_Slave_Receive) refers to stm32f4xx_hal_i2c.o(i.I2C_WaitOnFlagUntilTimeout) for I2C_WaitOnFlagUntilTimeout
    stm32f4xx_hal_i2c.o(i.HAL_I2C_Slave_Receive) refers to stm32f4xx_hal_i2c.o(i.I2C_WaitOnRXNEFlagUntilTimeout) for I2C_WaitOnRXNEFlagUntilTimeout
    stm32f4xx_hal_i2c.o(i.HAL_I2C_Slave_Receive) refers to stm32f4xx_hal_i2c.o(i.I2C_IsAcknowledgeFailed) for I2C_IsAcknowledgeFailed
    stm32f4xx_hal_i2c.o(i.HAL_I2C_Slave_Receive_DMA) refers to stm32f4xx_hal_dma.o(i.HAL_DMA_Start_IT) for HAL_DMA_Start_IT
    stm32f4xx_hal_i2c.o(i.HAL_I2C_Slave_Receive_DMA) refers to system_stm32f4xx.o(.data) for SystemCoreClock
    stm32f4xx_hal_i2c.o(i.HAL_I2C_Slave_Receive_DMA) refers to stm32f4xx_hal_i2c.o(i.I2C_DMAXferCplt) for I2C_DMAXferCplt
    stm32f4xx_hal_i2c.o(i.HAL_I2C_Slave_Receive_DMA) refers to stm32f4xx_hal_i2c.o(i.I2C_DMAError) for I2C_DMAError
    stm32f4xx_hal_i2c.o(i.HAL_I2C_Slave_Receive_IT) refers to system_stm32f4xx.o(.data) for SystemCoreClock
    stm32f4xx_hal_i2c.o(i.HAL_I2C_Slave_Transmit) refers to stm32f4xx_hal.o(i.HAL_GetTick) for HAL_GetTick
    stm32f4xx_hal_i2c.o(i.HAL_I2C_Slave_Transmit) refers to stm32f4xx_hal_i2c.o(i.I2C_WaitOnFlagUntilTimeout) for I2C_WaitOnFlagUntilTimeout
    stm32f4xx_hal_i2c.o(i.HAL_I2C_Slave_Transmit) refers to stm32f4xx_hal_i2c.o(i.I2C_WaitOnTXEFlagUntilTimeout) for I2C_WaitOnTXEFlagUntilTimeout
    stm32f4xx_hal_i2c.o(i.HAL_I2C_Slave_Transmit_DMA) refers to stm32f4xx_hal_dma.o(i.HAL_DMA_Start_IT) for HAL_DMA_Start_IT
    stm32f4xx_hal_i2c.o(i.HAL_I2C_Slave_Transmit_DMA) refers to system_stm32f4xx.o(.data) for SystemCoreClock
    stm32f4xx_hal_i2c.o(i.HAL_I2C_Slave_Transmit_DMA) refers to stm32f4xx_hal_i2c.o(i.I2C_DMAXferCplt) for I2C_DMAXferCplt
    stm32f4xx_hal_i2c.o(i.HAL_I2C_Slave_Transmit_DMA) refers to stm32f4xx_hal_i2c.o(i.I2C_DMAError) for I2C_DMAError
    stm32f4xx_hal_i2c.o(i.HAL_I2C_Slave_Transmit_IT) refers to system_stm32f4xx.o(.data) for SystemCoreClock
    stm32f4xx_hal_i2c.o(i.I2C_DMAAbort) refers to stm32f4xx_hal_i2c.o(i.HAL_I2C_ErrorCallback) for HAL_I2C_ErrorCallback
    stm32f4xx_hal_i2c.o(i.I2C_DMAAbort) refers to stm32f4xx_hal_i2c.o(i.HAL_I2C_AbortCpltCallback) for HAL_I2C_AbortCpltCallback
    stm32f4xx_hal_i2c.o(i.I2C_DMAError) refers to stm32f4xx_hal_dma.o(i.HAL_DMA_GetError) for HAL_DMA_GetError
    stm32f4xx_hal_i2c.o(i.I2C_DMAError) refers to stm32f4xx_hal_i2c.o(i.HAL_I2C_ErrorCallback) for HAL_I2C_ErrorCallback
    stm32f4xx_hal_i2c.o(i.I2C_DMAXferCplt) refers to stm32f4xx_hal_i2c.o(i.HAL_I2C_ErrorCallback) for HAL_I2C_ErrorCallback
    stm32f4xx_hal_i2c.o(i.I2C_DMAXferCplt) refers to stm32f4xx_hal_i2c.o(i.HAL_I2C_MasterRxCpltCallback) for HAL_I2C_MasterRxCpltCallback
    stm32f4xx_hal_i2c.o(i.I2C_DMAXferCplt) refers to stm32f4xx_hal_i2c.o(i.HAL_I2C_MemRxCpltCallback) for HAL_I2C_MemRxCpltCallback
    stm32f4xx_hal_i2c.o(i.I2C_ITError) refers to stm32f4xx_hal_dma.o(i.HAL_DMA_Abort_IT) for HAL_DMA_Abort_IT
    stm32f4xx_hal_i2c.o(i.I2C_ITError) refers to stm32f4xx_hal_i2c.o(i.HAL_I2C_ErrorCallback) for HAL_I2C_ErrorCallback
    stm32f4xx_hal_i2c.o(i.I2C_ITError) refers to stm32f4xx_hal_i2c.o(i.HAL_I2C_ListenCpltCallback) for HAL_I2C_ListenCpltCallback
    stm32f4xx_hal_i2c.o(i.I2C_ITError) refers to stm32f4xx_hal_i2c.o(i.HAL_I2C_AbortCpltCallback) for HAL_I2C_AbortCpltCallback
    stm32f4xx_hal_i2c.o(i.I2C_ITError) refers to stm32f4xx_hal_i2c.o(i.I2C_DMAAbort) for I2C_DMAAbort
    stm32f4xx_hal_i2c.o(i.I2C_MasterReceive_BTF) refers to stm32f4xx_hal_i2c.o(i.HAL_I2C_MasterRxCpltCallback) for HAL_I2C_MasterRxCpltCallback
    stm32f4xx_hal_i2c.o(i.I2C_MasterReceive_BTF) refers to stm32f4xx_hal_i2c.o(i.HAL_I2C_MemRxCpltCallback) for HAL_I2C_MemRxCpltCallback
    stm32f4xx_hal_i2c.o(i.I2C_MasterReceive_RXNE) refers to stm32f4xx_hal_i2c.o(i.HAL_I2C_MasterRxCpltCallback) for HAL_I2C_MasterRxCpltCallback
    stm32f4xx_hal_i2c.o(i.I2C_MasterReceive_RXNE) refers to stm32f4xx_hal_i2c.o(i.HAL_I2C_MemRxCpltCallback) for HAL_I2C_MemRxCpltCallback
    stm32f4xx_hal_i2c.o(i.I2C_MasterRequestRead) refers to stm32f4xx_hal_i2c.o(i.I2C_WaitOnFlagUntilTimeout) for I2C_WaitOnFlagUntilTimeout
    stm32f4xx_hal_i2c.o(i.I2C_MasterRequestRead) refers to stm32f4xx_hal_i2c.o(i.I2C_WaitOnMasterAddressFlagUntilTimeout) for I2C_WaitOnMasterAddressFlagUntilTimeout
    stm32f4xx_hal_i2c.o(i.I2C_MasterRequestWrite) refers to stm32f4xx_hal_i2c.o(i.I2C_WaitOnFlagUntilTimeout) for I2C_WaitOnFlagUntilTimeout
    stm32f4xx_hal_i2c.o(i.I2C_MasterRequestWrite) refers to stm32f4xx_hal_i2c.o(i.I2C_WaitOnMasterAddressFlagUntilTimeout) for I2C_WaitOnMasterAddressFlagUntilTimeout
    stm32f4xx_hal_i2c.o(i.I2C_MasterTransmit_BTF) refers to stm32f4xx_hal_i2c.o(i.HAL_I2C_MasterTxCpltCallback) for HAL_I2C_MasterTxCpltCallback
    stm32f4xx_hal_i2c.o(i.I2C_MasterTransmit_BTF) refers to stm32f4xx_hal_i2c.o(i.HAL_I2C_MemTxCpltCallback) for HAL_I2C_MemTxCpltCallback
    stm32f4xx_hal_i2c.o(i.I2C_MasterTransmit_TXE) refers to stm32f4xx_hal_i2c.o(i.HAL_I2C_MasterTxCpltCallback) for HAL_I2C_MasterTxCpltCallback
    stm32f4xx_hal_i2c.o(i.I2C_MasterTransmit_TXE) refers to stm32f4xx_hal_i2c.o(i.HAL_I2C_MemTxCpltCallback) for HAL_I2C_MemTxCpltCallback
    stm32f4xx_hal_i2c.o(i.I2C_RequestMemoryRead) refers to stm32f4xx_hal_i2c.o(i.I2C_WaitOnFlagUntilTimeout) for I2C_WaitOnFlagUntilTimeout
    stm32f4xx_hal_i2c.o(i.I2C_RequestMemoryRead) refers to stm32f4xx_hal_i2c.o(i.I2C_WaitOnMasterAddressFlagUntilTimeout) for I2C_WaitOnMasterAddressFlagUntilTimeout
    stm32f4xx_hal_i2c.o(i.I2C_RequestMemoryRead) refers to stm32f4xx_hal_i2c.o(i.I2C_WaitOnTXEFlagUntilTimeout) for I2C_WaitOnTXEFlagUntilTimeout
    stm32f4xx_hal_i2c.o(i.I2C_RequestMemoryWrite) refers to stm32f4xx_hal_i2c.o(i.I2C_WaitOnFlagUntilTimeout) for I2C_WaitOnFlagUntilTimeout
    stm32f4xx_hal_i2c.o(i.I2C_RequestMemoryWrite) refers to stm32f4xx_hal_i2c.o(i.I2C_WaitOnMasterAddressFlagUntilTimeout) for I2C_WaitOnMasterAddressFlagUntilTimeout
    stm32f4xx_hal_i2c.o(i.I2C_RequestMemoryWrite) refers to stm32f4xx_hal_i2c.o(i.I2C_WaitOnTXEFlagUntilTimeout) for I2C_WaitOnTXEFlagUntilTimeout
    stm32f4xx_hal_i2c.o(i.I2C_Slave_AF) refers to stm32f4xx_hal_i2c.o(i.HAL_I2C_ListenCpltCallback) for HAL_I2C_ListenCpltCallback
    stm32f4xx_hal_i2c.o(i.I2C_Slave_AF) refers to stm32f4xx_hal_i2c.o(i.HAL_I2C_SlaveTxCpltCallback) for HAL_I2C_SlaveTxCpltCallback
    stm32f4xx_hal_i2c.o(i.I2C_Slave_STOPF) refers to stm32f4xx_hal_i2c.o(i.I2C_ITError) for I2C_ITError
    stm32f4xx_hal_i2c.o(i.I2C_Slave_STOPF) refers to stm32f4xx_hal_i2c.o(i.HAL_I2C_ListenCpltCallback) for HAL_I2C_ListenCpltCallback
    stm32f4xx_hal_i2c.o(i.I2C_Slave_STOPF) refers to stm32f4xx_hal_i2c.o(i.HAL_I2C_SlaveRxCpltCallback) for HAL_I2C_SlaveRxCpltCallback
    stm32f4xx_hal_i2c.o(i.I2C_WaitOnBTFFlagUntilTimeout) refers to stm32f4xx_hal_i2c.o(i.I2C_IsAcknowledgeFailed) for I2C_IsAcknowledgeFailed
    stm32f4xx_hal_i2c.o(i.I2C_WaitOnBTFFlagUntilTimeout) refers to stm32f4xx_hal.o(i.HAL_GetTick) for HAL_GetTick
    stm32f4xx_hal_i2c.o(i.I2C_WaitOnFlagUntilTimeout) refers to stm32f4xx_hal.o(i.HAL_GetTick) for HAL_GetTick
    stm32f4xx_hal_i2c.o(i.I2C_WaitOnMasterAddressFlagUntilTimeout) refers to stm32f4xx_hal.o(i.HAL_GetTick) for HAL_GetTick
    stm32f4xx_hal_i2c.o(i.I2C_WaitOnRXNEFlagUntilTimeout) refers to stm32f4xx_hal.o(i.HAL_GetTick) for HAL_GetTick
    stm32f4xx_hal_i2c.o(i.I2C_WaitOnTXEFlagUntilTimeout) refers to stm32f4xx_hal_i2c.o(i.I2C_IsAcknowledgeFailed) for I2C_IsAcknowledgeFailed
    stm32f4xx_hal_i2c.o(i.I2C_WaitOnTXEFlagUntilTimeout) refers to stm32f4xx_hal.o(i.HAL_GetTick) for HAL_GetTick
    stm32f4xx_hal_dma.o(i.DMA_CalcBaseAndBitshift) refers to stm32f4xx_hal_dma.o(.constdata) for .constdata
    stm32f4xx_hal_dma.o(i.HAL_DMA_Abort) refers to stm32f4xx_hal.o(i.HAL_GetTick) for HAL_GetTick
    stm32f4xx_hal_dma.o(i.HAL_DMA_DeInit) refers to stm32f4xx_hal_dma.o(i.DMA_CalcBaseAndBitshift) for DMA_CalcBaseAndBitshift
    stm32f4xx_hal_dma.o(i.HAL_DMA_IRQHandler) refers to system_stm32f4xx.o(.data) for SystemCoreClock
    stm32f4xx_hal_dma.o(i.HAL_DMA_Init) refers to stm32f4xx_hal.o(i.HAL_GetTick) for HAL_GetTick
    stm32f4xx_hal_dma.o(i.HAL_DMA_Init) refers to stm32f4xx_hal_dma.o(i.DMA_CheckFifoParam) for DMA_CheckFifoParam
    stm32f4xx_hal_dma.o(i.HAL_DMA_Init) refers to stm32f4xx_hal_dma.o(i.DMA_CalcBaseAndBitshift) for DMA_CalcBaseAndBitshift
    stm32f4xx_hal_dma.o(i.HAL_DMA_PollForTransfer) refers to stm32f4xx_hal.o(i.HAL_GetTick) for HAL_GetTick
    stm32f4xx_hal_dma.o(i.HAL_DMA_PollForTransfer) refers to stm32f4xx_hal_dma.o(i.HAL_DMA_Abort) for HAL_DMA_Abort
    stm32f4xx_hal_dma.o(i.HAL_DMA_Start) refers to stm32f4xx_hal_dma.o(i.DMA_SetConfig) for DMA_SetConfig
    stm32f4xx_hal_dma.o(i.HAL_DMA_Start_IT) refers to stm32f4xx_hal_dma.o(i.DMA_SetConfig) for DMA_SetConfig
    system_stm32f4xx.o(i.SystemCoreClockUpdate) refers to system_stm32f4xx.o(.data) for .data
    system_stm32f4xx.o(i.SystemCoreClockUpdate) refers to system_stm32f4xx.o(.constdata) for .constdata
    startup_stm32f405xx.o(RESET) refers to startup_stm32f405xx.o(STACK) for __initial_sp
    startup_stm32f405xx.o(RESET) refers to startup_stm32f405xx.o(.text) for Reset_Handler
    startup_stm32f405xx.o(RESET) refers to stm32f4xx_it.o(i.NMI_Handler) for NMI_Handler
    startup_stm32f405xx.o(RESET) refers to stm32f4xx_it.o(i.HardFault_Handler) for HardFault_Handler
    startup_stm32f405xx.o(RESET) refers to stm32f4xx_it.o(i.MemManage_Handler) for MemManage_Handler
    startup_stm32f405xx.o(RESET) refers to stm32f4xx_it.o(i.BusFault_Handler) for BusFault_Handler
    startup_stm32f405xx.o(RESET) refers to stm32f4xx_it.o(i.UsageFault_Handler) for UsageFault_Handler
    startup_stm32f405xx.o(RESET) refers to stm32f4xx_it.o(i.SVC_Handler) for SVC_Handler
    startup_stm32f405xx.o(RESET) refers to stm32f4xx_it.o(i.DebugMon_Handler) for DebugMon_Handler
    startup_stm32f405xx.o(RESET) refers to stm32f4xx_it.o(i.PendSV_Handler) for PendSV_Handler
    startup_stm32f405xx.o(RESET) refers to stm32f4xx_it.o(i.SysTick_Handler) for SysTick_Handler
    startup_stm32f405xx.o(RESET) refers to stm32f4xx_it.o(i.EXTI3_IRQHandler) for EXTI3_IRQHandler
    startup_stm32f405xx.o(RESET) refers to stm32f4xx_it.o(i.EXTI4_IRQHandler) for EXTI4_IRQHandler
    startup_stm32f405xx.o(RESET) refers to stm32f4xx_it.o(i.CAN1_TX_IRQHandler) for CAN1_TX_IRQHandler
    startup_stm32f405xx.o(RESET) refers to stm32f4xx_it.o(i.CAN1_RX0_IRQHandler) for CAN1_RX0_IRQHandler
    startup_stm32f405xx.o(RESET) refers to stm32f4xx_it.o(i.TIM2_IRQHandler) for TIM2_IRQHandler
    startup_stm32f405xx.o(RESET) refers to stm32f4xx_it.o(i.TIM3_IRQHandler) for TIM3_IRQHandler
    startup_stm32f405xx.o(RESET) refers to stm32f4xx_it.o(i.TIM4_IRQHandler) for TIM4_IRQHandler
    startup_stm32f405xx.o(RESET) refers to stm32f4xx_it.o(i.EXTI15_10_IRQHandler) for EXTI15_10_IRQHandler
    startup_stm32f405xx.o(RESET) refers to stm32f4xx_it.o(i.TIM5_IRQHandler) for TIM5_IRQHandler
    startup_stm32f405xx.o(RESET) refers to stm32f4xx_it.o(i.DMA2_Stream0_IRQHandler) for DMA2_Stream0_IRQHandler
    startup_stm32f405xx.o(RESET) refers to stm32f4xx_it.o(i.DMA2_Stream3_IRQHandler) for DMA2_Stream3_IRQHandler
    startup_stm32f405xx.o(.text) refers to system_stm32f4xx.o(i.SystemInit) for SystemInit
    startup_stm32f405xx.o(.text) refers to entry.o(.ARM.Collect$$$$00000000) for __main
    main.o(i.MX_CAN1_Init) refers to stm32f4xx_hal_can.o(i.HAL_CAN_Init) for HAL_CAN_Init
    main.o(i.MX_CAN1_Init) refers to main.o(.bss) for .bss
    main.o(i.MX_GPIO_Init) refers to stm32f4xx_hal_gpio.o(i.HAL_GPIO_WritePin) for HAL_GPIO_WritePin
    main.o(i.MX_GPIO_Init) refers to stm32f4xx_hal_gpio.o(i.HAL_GPIO_Init) for HAL_GPIO_Init
    main.o(i.MX_I2C2_Init) refers to stm32f4xx_hal_i2c.o(i.HAL_I2C_Init) for HAL_I2C_Init
    main.o(i.MX_I2C2_Init) refers to main.o(.bss) for .bss
    main.o(i.MX_NVIC_Init) refers to stm32f4xx_hal_cortex.o(i.HAL_NVIC_SetPriority) for HAL_NVIC_SetPriority
    main.o(i.MX_NVIC_Init) refers to stm32f4xx_hal_cortex.o(i.HAL_NVIC_EnableIRQ) for HAL_NVIC_EnableIRQ
    main.o(i.MX_SPI1_Init) refers to stm32f4xx_hal_spi.o(i.HAL_SPI_Init) for HAL_SPI_Init
    main.o(i.MX_SPI1_Init) refers to main.o(.bss) for .bss
    main.o(i.MX_TIM2_Init) refers to stm32f4xx_hal_tim.o(i.HAL_TIM_Base_Init) for HAL_TIM_Base_Init
    main.o(i.MX_TIM2_Init) refers to stm32f4xx_hal_tim.o(i.HAL_TIM_ConfigClockSource) for HAL_TIM_ConfigClockSource
    main.o(i.MX_TIM2_Init) refers to stm32f4xx_hal_tim_ex.o(i.HAL_TIMEx_MasterConfigSynchronization) for HAL_TIMEx_MasterConfigSynchronization
    main.o(i.MX_TIM2_Init) refers to main.o(.bss) for .bss
    main.o(i.MX_TIM2_SET) refers to stm32f4xx_hal_tim.o(i.HAL_TIM_Base_Init) for HAL_TIM_Base_Init
    main.o(i.MX_TIM2_SET) refers to main.o(.bss) for .bss
    main.o(i.MX_TIM3_Init) refers to stm32f4xx_hal_tim.o(i.HAL_TIM_Base_Init) for HAL_TIM_Base_Init
    main.o(i.MX_TIM3_Init) refers to stm32f4xx_hal_tim.o(i.HAL_TIM_ConfigClockSource) for HAL_TIM_ConfigClockSource
    main.o(i.MX_TIM3_Init) refers to stm32f4xx_hal_tim_ex.o(i.HAL_TIMEx_MasterConfigSynchronization) for HAL_TIMEx_MasterConfigSynchronization
    main.o(i.MX_TIM3_Init) refers to main.o(.bss) for .bss
    main.o(i.MX_TIM3_SET) refers to stm32f4xx_hal_tim.o(i.HAL_TIM_Base_Init) for HAL_TIM_Base_Init
    main.o(i.MX_TIM3_SET) refers to main.o(.bss) for .bss
    main.o(i.MX_TIM4_Init) refers to stm32f4xx_hal_tim.o(i.HAL_TIM_Base_Init) for HAL_TIM_Base_Init
    main.o(i.MX_TIM4_Init) refers to stm32f4xx_hal_tim.o(i.HAL_TIM_ConfigClockSource) for HAL_TIM_ConfigClockSource
    main.o(i.MX_TIM4_Init) refers to stm32f4xx_hal_tim_ex.o(i.HAL_TIMEx_MasterConfigSynchronization) for HAL_TIMEx_MasterConfigSynchronization
    main.o(i.MX_TIM4_Init) refers to main.o(.bss) for .bss
    main.o(i.MX_TIM4_SET) refers to stm32f4xx_hal_tim.o(i.HAL_TIM_Base_Init) for HAL_TIM_Base_Init
    main.o(i.MX_TIM4_SET) refers to main.o(.bss) for .bss
    main.o(i.MX_TIM5_Init) refers to stm32f4xx_hal_tim.o(i.HAL_TIM_Base_Init) for HAL_TIM_Base_Init
    main.o(i.MX_TIM5_Init) refers to stm32f4xx_hal_tim.o(i.HAL_TIM_ConfigClockSource) for HAL_TIM_ConfigClockSource
    main.o(i.MX_TIM5_Init) refers to stm32f4xx_hal_tim_ex.o(i.HAL_TIMEx_MasterConfigSynchronization) for HAL_TIMEx_MasterConfigSynchronization
    main.o(i.MX_TIM5_Init) refers to main.o(.bss) for .bss
    main.o(i.MX_TIM5_SET) refers to stm32f4xx_hal_tim.o(i.HAL_TIM_Base_Init) for HAL_TIM_Base_Init
    main.o(i.MX_TIM5_SET) refers to main.o(.bss) for .bss
    main.o(i.SystemClock_Config) refers to stm32f4xx_hal_rcc.o(i.HAL_RCC_OscConfig) for HAL_RCC_OscConfig
    main.o(i.SystemClock_Config) refers to stm32f4xx_hal_rcc.o(i.HAL_RCC_ClockConfig) for HAL_RCC_ClockConfig
    main.o(i.SystemClock_Config) refers to stm32f4xx_hal_rcc.o(i.HAL_RCC_GetHCLKFreq) for HAL_RCC_GetHCLKFreq
    main.o(i.SystemClock_Config) refers to stm32f4xx_hal_cortex.o(i.HAL_SYSTICK_Config) for HAL_SYSTICK_Config
    main.o(i.SystemClock_Config) refers to stm32f4xx_hal_cortex.o(i.HAL_SYSTICK_CLKSourceConfig) for HAL_SYSTICK_CLKSourceConfig
    main.o(i.SystemClock_Config) refers to stm32f4xx_hal_cortex.o(i.HAL_NVIC_SetPriority) for HAL_NVIC_SetPriority
    main.o(i.main) refers to stm32f4xx_hal.o(i.HAL_Init) for HAL_Init
    main.o(i.main) refers to main.o(i.SystemClock_Config) for SystemClock_Config
    main.o(i.main) refers to main.o(i.MX_GPIO_Init) for MX_GPIO_Init
    main.o(i.main) refers to main.o(i.MX_CAN1_Init) for MX_CAN1_Init
    main.o(i.main) refers to main.o(i.MX_I2C2_Init) for MX_I2C2_Init
    main.o(i.main) refers to main.o(i.MX_SPI1_Init) for MX_SPI1_Init
    main.o(i.main) refers to main.o(i.MX_TIM2_Init) for MX_TIM2_Init
    main.o(i.main) refers to main.o(i.MX_TIM3_Init) for MX_TIM3_Init
    main.o(i.main) refers to main.o(i.MX_TIM4_Init) for MX_TIM4_Init
    main.o(i.main) refers to main.o(i.MX_TIM5_Init) for MX_TIM5_Init
    main.o(i.main) refers to main.o(i.MX_NVIC_Init) for MX_NVIC_Init
    main.o(i.main) refers to stm32f4xx_hal_msp.o(i.HX530_Senddata) for HX530_Senddata
    main.o(i.main) refers to stm32f4xx_hal_tim.o(i.HAL_TIM_Base_Start_IT) for HAL_TIM_Base_Start_IT
    main.o(i.main) refers to stm32f4xx_hal_i2c.o(i.HAL_I2C_GetError) for HAL_I2C_GetError
    main.o(i.main) refers to stm32f4xx_hal_i2c.o(i.HAL_I2C_Mem_Read) for HAL_I2C_Mem_Read
    main.o(i.main) refers to stm32f4xx_hal_i2c.o(i.HAL_I2C_Mem_Write) for HAL_I2C_Mem_Write
    main.o(i.main) refers to stm32f4xx_hal_can.o(i.HAL_CAN_Receive_IT) for HAL_CAN_Receive_IT
    main.o(i.main) refers to stm32f4xx_hal_gpio.o(i.HAL_GPIO_WritePin) for HAL_GPIO_WritePin
    main.o(i.main) refers to stm32f4xx_hal_spi.o(i.HAL_SPI_DeInit) for HAL_SPI_DeInit
    main.o(i.main) refers to stm32f4xx_hal_msp.o(i.HAL_SPI_MspInit) for HAL_SPI_MspInit
    main.o(i.main) refers to stm32f4xx_hal_spi.o(i.HAL_SPI_TransmitReceive_DMA) for HAL_SPI_TransmitReceive_DMA
    main.o(i.main) refers to moshicanshu.o(i.exczsfanwei_ST) for exczsfanwei_ST
    main.o(i.main) refers to moshicanshu.o(i.dpdatclr) for dpdatclr
    main.o(i.main) refers to moshicanshu.o(i.clr_8192_RD) for clr_8192_RD
    main.o(i.main) refers to moshicanshu.o(i.excomm_QJkz) for excomm_QJkz
    main.o(i.main) refers to moshicanshu.o(i.clr_f8) for clr_f8
    main.o(i.main) refers to moshicanshu.o(i.excfanwei_STOP) for excfanwei_STOP
    main.o(i.main) refers to main.o(.bss) for .bss
    main.o(i.main) refers to main.o(.data) for .data
    main.o(i.main) refers to moshicanshu.o(i.H_Xy_fan) for H_Xy_fan
    main.o(i.main) refers to moshicanshu.o(i.exczsfanwei_BJ) for exczsfanwei_BJ
    main.o(i.main) refers to moshicanshu.o(i.fanchafanweixiabiao) for fanchafanweixiabiao
    main.o(i.main) refers to moshicanshu.o(i.exppfw) for exppfw
    main.o(i.main) refers to moshicanshu.o(i.FW_Fixed_Exec) for FW_Fixed_Exec
    main.o(i.main) refers to memcpya.o(.text) for __aeabi_memcpy
    main.o(i.main) refers to main.o(i.setfanwei) for setfanwei
    main.o(i.main) refers to stm32f4xx_hal_gpio.o(i.HAL_GPIO_ReadPin) for HAL_GPIO_ReadPin
    main.o(i.main) refers to main.o(i.MX_TIM4_SET) for MX_TIM4_SET
    main.o(i.main) refers to f2d.o(.text) for __aeabi_f2d
    main.o(i.main) refers to ddiv.o(.text) for __aeabi_ddiv
    main.o(i.main) refers to d2f.o(.text) for __aeabi_d2f
    main.o(i.main) refers to moshicanshu.o(i.Can_WriteData) for Can_WriteData
    main.o(i.main) refers to stm32f4xx_it.o(.data) for yli_dat
    main.o(i.setfanwei) refers to main.o(.bss) for .bss
    stm32f4xx_hal_msp.o(i.DATDDP) refers to stm32f4xx_hal_gpio.o(i.HAL_GPIO_WritePin) for HAL_GPIO_WritePin
    stm32f4xx_hal_msp.o(i.HAL_CAN_MspDeInit) refers to stm32f4xx_hal_gpio.o(i.HAL_GPIO_DeInit) for HAL_GPIO_DeInit
    stm32f4xx_hal_msp.o(i.HAL_CAN_MspDeInit) refers to stm32f4xx_hal_cortex.o(i.HAL_NVIC_DisableIRQ) for HAL_NVIC_DisableIRQ
    stm32f4xx_hal_msp.o(i.HAL_CAN_MspInit) refers to stm32f4xx_hal_gpio.o(i.HAL_GPIO_Init) for HAL_GPIO_Init
    stm32f4xx_hal_msp.o(i.HAL_CAN_MspInit) refers to stm32f4xx_hal_can.o(i.HAL_CAN_ConfigFilter) for HAL_CAN_ConfigFilter
    stm32f4xx_hal_msp.o(i.HAL_CAN_MspInit) refers to main.o(i._Error_Handler) for _Error_Handler
    stm32f4xx_hal_msp.o(i.HAL_CAN_MspInit) refers to main.o(.bss) for TxMessage
    stm32f4xx_hal_msp.o(i.HAL_CAN_MspInit) refers to main.o(.bss) for hcan1
    stm32f4xx_hal_msp.o(i.HAL_CAN_MspInit) refers to main.o(.bss) for RxMessage
    stm32f4xx_hal_msp.o(i.HAL_I2C_MspDeInit) refers to stm32f4xx_hal_gpio.o(i.HAL_GPIO_DeInit) for HAL_GPIO_DeInit
    stm32f4xx_hal_msp.o(i.HAL_I2C_MspInit) refers to stm32f4xx_hal_gpio.o(i.HAL_GPIO_Init) for HAL_GPIO_Init
    stm32f4xx_hal_msp.o(i.HAL_MspInit) refers to stm32f4xx_hal_cortex.o(i.HAL_NVIC_SetPriorityGrouping) for HAL_NVIC_SetPriorityGrouping
    stm32f4xx_hal_msp.o(i.HAL_MspInit) refers to stm32f4xx_hal_cortex.o(i.HAL_NVIC_SetPriority) for HAL_NVIC_SetPriority
    stm32f4xx_hal_msp.o(i.HAL_SPI_MspDeInit) refers to stm32f4xx_hal_gpio.o(i.HAL_GPIO_DeInit) for HAL_GPIO_DeInit
    stm32f4xx_hal_msp.o(i.HAL_SPI_MspDeInit) refers to stm32f4xx_hal_dma.o(i.HAL_DMA_DeInit) for HAL_DMA_DeInit
    stm32f4xx_hal_msp.o(i.HAL_SPI_MspInit) refers to stm32f4xx_hal_gpio.o(i.HAL_GPIO_Init) for HAL_GPIO_Init
    stm32f4xx_hal_msp.o(i.HAL_SPI_MspInit) refers to stm32f4xx_hal_dma.o(i.HAL_DMA_Init) for HAL_DMA_Init
    stm32f4xx_hal_msp.o(i.HAL_SPI_MspInit) refers to main.o(i._Error_Handler) for _Error_Handler
    stm32f4xx_hal_msp.o(i.HAL_SPI_MspInit) refers to main.o(.bss) for hdma_spi1_rx
    stm32f4xx_hal_msp.o(i.HAL_SPI_MspInit) refers to main.o(.bss) for hdma_spi1_tx
    stm32f4xx_hal_msp.o(i.HAL_TIM_Base_MspDeInit) refers to stm32f4xx_hal_cortex.o(i.HAL_NVIC_DisableIRQ) for HAL_NVIC_DisableIRQ
    stm32f4xx_hal_msp.o(i.HX530_Senddata) refers to stm32f4xx_hal_gpio.o(i.HAL_GPIO_WritePin) for HAL_GPIO_WritePin
    stm32f4xx_hal_msp.o(i.HX530_Senddata) refers to stm32f4xx_hal_gpio.o(i.HAL_GPIO_ReadPin) for HAL_GPIO_ReadPin
    stm32f4xx_hal_msp.o(i.HX530_Senddata) refers to stm32f4xx_hal_msp.o(i.DATDDP) for DATDDP
    stm32f4xx_hal_msp.o(i.HX530_readdata) refers to stm32f4xx_hal_gpio.o(i.HAL_GPIO_WritePin) for HAL_GPIO_WritePin
    stm32f4xx_hal_msp.o(i.HX530_readdata) refers to stm32f4xx_hal_gpio.o(i.HAL_GPIO_ReadPin) for HAL_GPIO_ReadPin
    stm32f4xx_hal_msp.o(i.HX530_readdata) refers to stm32f4xx_hal_msp.o(i.HX530_Senddata) for HX530_Senddata
    stm32f4xx_hal_msp.o(i.HX530_readdata) refers to stm32f4xx_hal_msp.o(.data) for .data
    stm32f4xx_hal_msp.o(i.HX530_readdata) refers to stm32f4xx_hal_msp.o(.bss) for .bss
    stm32f4xx_it.o(i.CAN1_RX0_IRQHandler) refers to stm32f4xx_hal_can.o(i.HAL_CAN_IRQHandler) for HAL_CAN_IRQHandler
    stm32f4xx_it.o(i.CAN1_RX0_IRQHandler) refers to stm32f4xx_hal_can.o(i.HAL_CAN_Receive_IT) for HAL_CAN_Receive_IT
    stm32f4xx_it.o(i.CAN1_RX0_IRQHandler) refers to main.o(.bss) for hcan1
    stm32f4xx_it.o(i.CAN1_RX0_IRQHandler) refers to main.o(.bss) for RxMessage
    stm32f4xx_it.o(i.CAN1_RX0_IRQHandler) refers to main.o(.data) for CAN_RX
    stm32f4xx_it.o(i.CAN1_RX0_IRQHandler) refers to main.o(.data) for QJ_data
    stm32f4xx_it.o(i.CAN1_RX0_IRQHandler) refers to main.o(.data) for TaoTong_JC
    stm32f4xx_it.o(i.CAN1_RX0_IRQHandler) refers to main.o(.data) for TS_tx_en
    stm32f4xx_it.o(i.CAN1_RX0_IRQHandler) refers to main.o(.data) for COMM_CF
    stm32f4xx_it.o(i.CAN1_RX0_IRQHandler) refers to main.o(.data) for XJ_en
    stm32f4xx_it.o(i.CAN1_RX0_IRQHandler) refers to main.o(.data) for QJJX_sw
    stm32f4xx_it.o(i.CAN1_TX_IRQHandler) refers to stm32f4xx_hal_can.o(i.HAL_CAN_IRQHandler) for HAL_CAN_IRQHandler
    stm32f4xx_it.o(i.CAN1_TX_IRQHandler) refers to main.o(.bss) for hcan1
    stm32f4xx_it.o(i.DMA2_Stream0_IRQHandler) refers to stm32f4xx_hal_dma.o(i.HAL_DMA_IRQHandler) for HAL_DMA_IRQHandler
    stm32f4xx_it.o(i.DMA2_Stream0_IRQHandler) refers to memcpya.o(.text) for __aeabi_memcpy
    stm32f4xx_it.o(i.DMA2_Stream0_IRQHandler) refers to stm32f4xx_hal_spi.o(i.HAL_SPI_TransmitReceive_DMA) for HAL_SPI_TransmitReceive_DMA
    stm32f4xx_it.o(i.DMA2_Stream0_IRQHandler) refers to main.o(.bss) for hdma_spi1_rx
    stm32f4xx_it.o(i.DMA2_Stream0_IRQHandler) refers to main.o(.bss) for DMA_RX
    stm32f4xx_it.o(i.DMA2_Stream0_IRQHandler) refers to main.o(.data) for SET_PX
    stm32f4xx_it.o(i.DMA2_Stream0_IRQHandler) refers to main.o(.data) for MS_Auto
    stm32f4xx_it.o(i.DMA2_Stream0_IRQHandler) refers to main.o(.data) for FW_Fixed
    stm32f4xx_it.o(i.DMA2_Stream3_IRQHandler) refers to stm32f4xx_hal_dma.o(i.HAL_DMA_IRQHandler) for HAL_DMA_IRQHandler
    stm32f4xx_it.o(i.DMA2_Stream3_IRQHandler) refers to main.o(.bss) for hdma_spi1_tx
    stm32f4xx_it.o(i.EXTI15_10_IRQHandler) refers to stm32f4xx_hal_gpio.o(i.HAL_GPIO_EXTI_Callback) for HAL_GPIO_EXTI_Callback
    stm32f4xx_it.o(i.EXTI15_10_IRQHandler) refers to stm32f4xx_hal_gpio.o(i.HAL_GPIO_ReadPin) for HAL_GPIO_ReadPin
    stm32f4xx_it.o(i.EXTI15_10_IRQHandler) refers to stm32f4xx_hal_gpio.o(i.HAL_GPIO_WritePin) for HAL_GPIO_WritePin
    stm32f4xx_it.o(i.EXTI15_10_IRQHandler) refers to main.o(i.MX_TIM4_SET) for MX_TIM4_SET
    stm32f4xx_it.o(i.EXTI15_10_IRQHandler) refers to stm32f4xx_it.o(i.Read_AM8192) for Read_AM8192
    stm32f4xx_it.o(i.EXTI15_10_IRQHandler) refers to dflti.o(.text) for __aeabi_i2d
    stm32f4xx_it.o(i.EXTI15_10_IRQHandler) refers to dmul.o(.text) for __aeabi_dmul
    stm32f4xx_it.o(i.EXTI15_10_IRQHandler) refers to dfixi.o(.text) for __aeabi_d2iz
    stm32f4xx_it.o(i.EXTI15_10_IRQHandler) refers to main.o(.bss) for fanwei_data
    stm32f4xx_it.o(i.EXTI15_10_IRQHandler) refers to main.o(.data) for AM8192_DAT
    stm32f4xx_it.o(i.EXTI15_10_IRQHandler) refers to main.o(.data) for auto_YL_ts
    stm32f4xx_it.o(i.EXTI15_10_IRQHandler) refers to main.o(.data) for CF_tim
    stm32f4xx_it.o(i.EXTI15_10_IRQHandler) refers to main.o(.data) for TS_SP_zt
    stm32f4xx_it.o(i.EXTI15_10_IRQHandler) refers to main.o(.data) for CF_time
    stm32f4xx_it.o(i.EXTI15_10_IRQHandler) refers to main.o(.data) for CF_int_js
    stm32f4xx_it.o(i.EXTI15_10_IRQHandler) refers to main.o(.data) for H_F_STOP_GD
    stm32f4xx_it.o(i.EXTI15_10_IRQHandler) refers to main.o(.data) for H_F_check
    stm32f4xx_it.o(i.EXTI15_10_IRQHandler) refers to main.o(.data) for Read_dat_en
    stm32f4xx_it.o(i.EXTI15_10_IRQHandler) refers to main.o(.data) for Read_buj_um
    stm32f4xx_it.o(i.EXTI15_10_IRQHandler) refers to main.o(.data) for YL_dat
    stm32f4xx_it.o(i.EXTI15_10_IRQHandler) refers to main.o(.data) for DF_tim_en
    stm32f4xx_it.o(i.EXTI15_10_IRQHandler) refers to main.o(.bss) for ts_shupin
    stm32f4xx_it.o(i.EXTI15_10_IRQHandler) refers to main.o(.data) for TS_RD_wz
    stm32f4xx_it.o(i.EXTI3_IRQHandler) refers to stm32f4xx_hal_gpio.o(i.HAL_GPIO_EXTI_IRQHandler) for HAL_GPIO_EXTI_IRQHandler
    stm32f4xx_it.o(i.EXTI3_IRQHandler) refers to stm32f4xx_hal_gpio.o(i.HAL_GPIO_WritePin) for HAL_GPIO_WritePin
    stm32f4xx_it.o(i.EXTI3_IRQHandler) refers to main.o(.bss) for DMA_TX
    stm32f4xx_it.o(i.EXTI3_IRQHandler) refers to main.o(.data) for BD_bjdat
    stm32f4xx_it.o(i.EXTI3_IRQHandler) refers to main.o(.data) for BD_stop
    stm32f4xx_it.o(i.EXTI3_IRQHandler) refers to main.o(.data) for BD_home
    stm32f4xx_it.o(i.EXTI3_IRQHandler) refers to main.o(.data) for BD_equ
    stm32f4xx_it.o(i.EXTI4_IRQHandler) refers to stm32f4xx_hal_gpio.o(i.HAL_GPIO_EXTI_IRQHandler) for HAL_GPIO_EXTI_IRQHandler
    stm32f4xx_it.o(i.EXTI4_IRQHandler) refers to main.o(.data) for DMA_RES
    stm32f4xx_it.o(i.HuanFan) refers to main.o(.data) for Run_fanwei
    stm32f4xx_it.o(i.HuanFan) refers to moshicanshu.o(.constdata) for pm4p1
    stm32f4xx_it.o(i.HuanFan) refers to main.o(.bss) for fanwei_data
    stm32f4xx_it.o(i.RD_AM8192) refers to stm32f4xx_it.o(i.Read_AM8192) for Read_AM8192
    stm32f4xx_it.o(i.RD_AM8192) refers to main.o(.data) for AM8192_UM
    stm32f4xx_it.o(i.RD_AM8192) refers to main.o(.data) for AM8192_CP
    stm32f4xx_it.o(i.RD_AM8192) refers to main.o(.data) for AM8192_DAT
    stm32f4xx_it.o(i.RD_AM8192) refers to main.o(.bss) for DMA_TX
    stm32f4xx_it.o(i.Read1_AM8192) refers to stm32f4xx_hal_gpio.o(i.HAL_GPIO_WritePin) for HAL_GPIO_WritePin
    stm32f4xx_it.o(i.Read1_AM8192) refers to stm32f4xx_hal_gpio.o(i.HAL_GPIO_ReadPin) for HAL_GPIO_ReadPin
    stm32f4xx_it.o(i.Read_AM8192) refers to stm32f4xx_hal_gpio.o(i.HAL_GPIO_WritePin) for HAL_GPIO_WritePin
    stm32f4xx_it.o(i.Read_AM8192) refers to stm32f4xx_hal_gpio.o(i.HAL_GPIO_ReadPin) for HAL_GPIO_ReadPin
    stm32f4xx_it.o(i.Sm_FanMianCanShu) refers to moshicanshu.o(i.fweipandin) for fweipandin
    stm32f4xx_it.o(i.Sm_FanMianCanShu) refers to main.o(.bss) for fanwei_data
    stm32f4xx_it.o(i.Sm_FanMianCanShu) refers to main.o(.data) for tiaofan_enp
    stm32f4xx_it.o(i.Sm_FanMianCanShu) refers to main.o(.data) for shitouleixin
    stm32f4xx_it.o(i.Sm_FanMian_GaoSu) refers to moshicanshu.o(.constdata) for pm4p1
    stm32f4xx_it.o(i.Sm_FanMian_GaoSu) refers to main.o(.bss) for fanwei_data
    stm32f4xx_it.o(i.SysTick_Handler) refers to stm32f4xx_hal.o(i.HAL_IncTick) for HAL_IncTick
    stm32f4xx_it.o(i.SysTick_Handler) refers to stm32f4xx_hal_cortex.o(i.HAL_SYSTICK_IRQHandler) for HAL_SYSTICK_IRQHandler
    stm32f4xx_it.o(i.SysTick_Handler) refers to stm32f4xx_it.o(i.RD_AM8192) for RD_AM8192
    stm32f4xx_it.o(i.SysTick_Handler) refers to stm32f4xx_hal_msp.o(i.HX530_readdata) for HX530_readdata
    stm32f4xx_it.o(i.SysTick_Handler) refers to dflti.o(.text) for __aeabi_i2d
    stm32f4xx_it.o(i.SysTick_Handler) refers to dmul.o(.text) for __aeabi_dmul
    stm32f4xx_it.o(i.SysTick_Handler) refers to dfixi.o(.text) for __aeabi_d2iz
    stm32f4xx_it.o(i.SysTick_Handler) refers to memcpya.o(.text) for __aeabi_memcpy4
    stm32f4xx_it.o(i.SysTick_Handler) refers to main.o(i.MX_TIM2_SET) for MX_TIM2_SET
    stm32f4xx_it.o(i.SysTick_Handler) refers to main.o(i.MX_TIM4_SET) for MX_TIM4_SET
    stm32f4xx_it.o(i.SysTick_Handler) refers to main.o(i.MX_TIM3_SET) for MX_TIM3_SET
    stm32f4xx_it.o(i.SysTick_Handler) refers to moshicanshu.o(i.excfanwei_STOP) for excfanwei_STOP
    stm32f4xx_it.o(i.SysTick_Handler) refers to stm32f4xx_hal_gpio.o(i.HAL_GPIO_ReadPin) for HAL_GPIO_ReadPin
    stm32f4xx_it.o(i.SysTick_Handler) refers to stm32f4xx_hal_gpio.o(i.HAL_GPIO_WritePin) for HAL_GPIO_WritePin
    stm32f4xx_it.o(i.SysTick_Handler) refers to stm32f4xx_it.o(.data) for .data
    stm32f4xx_it.o(i.SysTick_Handler) refers to main.o(.data) for FW_XiaBiao
    stm32f4xx_it.o(i.SysTick_Handler) refers to main.o(.bss) for fanwei_data
    stm32f4xx_it.o(i.SysTick_Handler) refers to main.o(.data) for Read_dat_en
    stm32f4xx_it.o(i.SysTick_Handler) refers to main.o(.data) for YL_dat
    stm32f4xx_it.o(i.SysTick_Handler) refers to main.o(.data) for YL_max
    stm32f4xx_it.o(i.SysTick_Handler) refers to main.o(.data) for YL_min
    stm32f4xx_it.o(i.SysTick_Handler) refers to main.o(.data) for AM8192_DAT
    stm32f4xx_it.o(i.SysTick_Handler) refers to main.o(.data) for XJ_bjs
    stm32f4xx_it.o(i.SysTick_Handler) refers to main.o(.data) for XJ_en
    stm32f4xx_it.o(i.SysTick_Handler) refers to main.o(.data) for auto_YL_ts
    stm32f4xx_it.o(i.SysTick_Handler) refers to main.o(.data) for START
    stm32f4xx_it.o(i.SysTick_Handler) refers to main.o(.bss) for ts_shupin
    stm32f4xx_it.o(i.SysTick_Handler) refers to main.o(.data) for BD_setp
    stm32f4xx_it.o(i.SysTick_Handler) refers to main.o(.data) for BD_stop
    stm32f4xx_it.o(i.SysTick_Handler) refers to main.o(.data) for BD_equ
    stm32f4xx_it.o(i.SysTick_Handler) refers to main.o(.data) for CF_tim
    stm32f4xx_it.o(i.SysTick_Handler) refers to main.o(.data) for tx_fanwei_tim
    stm32f4xx_it.o(i.SysTick_Handler) refers to main.o(.data) for BD_home
    stm32f4xx_it.o(i.SysTick_Handler) refers to main.o(.data) for Stop_en
    stm32f4xx_it.o(i.SysTick_Handler) refers to main.o(.data) for KS_XJ_en
    stm32f4xx_it.o(i.SysTick_Handler) refers to moshicanshu.o(i.H_Xy_fan) for H_Xy_fan
    stm32f4xx_it.o(i.SysTick_Handler) refers to dfltui.o(.text) for __aeabi_ui2d
    stm32f4xx_it.o(i.SysTick_Handler) refers to dfixui.o(.text) for __aeabi_d2uiz
    stm32f4xx_it.o(i.SysTick_Handler) refers to stm32f4xx_it.o(i.allfwei) for allfwei
    stm32f4xx_it.o(i.SysTick_Handler) refers to stm32f4xx_it.o(i.chk_kuaifan_24) for chk_kuaifan_24
    stm32f4xx_it.o(i.SysTick_Handler) refers to stm32f4xx_it.o(i.smypfwei) for smypfwei
    stm32f4xx_it.o(i.SysTick_Handler) refers to moshicanshu.o(i.fweipandin) for fweipandin
    stm32f4xx_it.o(i.SysTick_Handler) refers to main.o(.data) for min_SD_dat
    stm32f4xx_it.o(i.SysTick_Handler) refers to main.o(.data) for dchuli_sw
    stm32f4xx_it.o(i.SysTick_Handler) refers to main.o(.data) for AM8192_STOP
    stm32f4xx_it.o(i.SysTick_Handler) refers to main.o(.data) for XJ_Read_dat
    stm32f4xx_it.o(i.SysTick_Handler) refers to main.o(.data) for Read_buj_um
    stm32f4xx_it.o(i.SysTick_Handler) refers to main.o(.data) for RD_ens
    stm32f4xx_it.o(i.SysTick_Handler) refers to main.o(.data) for FW_Fixed
    stm32f4xx_it.o(i.SysTick_Handler) refers to main.o(.data) for TMP1
    stm32f4xx_it.o(i.SysTick_Handler) refers to main.o(.data) for tiaofan_enp
    stm32f4xx_it.o(i.SysTick_Handler) refers to moshicanshu.o(i.exczsfanwei_BJ) for exczsfanwei_BJ
    stm32f4xx_it.o(i.SysTick_Handler) refers to stm32f4xx_it.o(i.Z_H_SaoMiao) for Z_H_SaoMiao
    stm32f4xx_it.o(i.SysTick_Handler) refers to moshicanshu.o(i.clr_f8) for clr_f8
    stm32f4xx_it.o(i.SysTick_Handler) refers to moshicanshu.o(i.excomm_QJkz) for excomm_QJkz
    stm32f4xx_it.o(i.SysTick_Handler) refers to moshicanshu.o(i.dpdatclr) for dpdatclr
    stm32f4xx_it.o(i.SysTick_Handler) refers to stm32f4xx_it.o(i.XJ_ext) for XJ_ext
    stm32f4xx_it.o(i.SysTick_Handler) refers to main.o(.data) for shangwei_BZ
    stm32f4xx_it.o(i.SysTick_Handler) refers to main.o(.data) for xiawei_BZ
    stm32f4xx_it.o(i.SysTick_Handler) refers to main.o(.data) for offset_shangwei
    stm32f4xx_it.o(i.SysTick_Handler) refers to main.o(.data) for offset_xiawei
    stm32f4xx_it.o(i.SysTick_Handler) refers to main.o(.data) for H_F_check
    stm32f4xx_it.o(i.SysTick_Handler) refers to main.o(.data) for H_F_STOP_GD
    stm32f4xx_it.o(i.SysTick_Handler) refers to main.o(.data) for CF_int_js
    stm32f4xx_it.o(i.SysTick_Handler) refers to main.o(.data) for COMM_CF
    stm32f4xx_it.o(i.SysTick_Handler) refers to main.o(.data) for MS_Auto
    stm32f4xx_it.o(i.SysTick_Handler) refers to main.o(.data) for f8_end
    stm32f4xx_it.o(i.SysTick_Handler) refers to main.o(.data) for f16_end
    stm32f4xx_it.o(i.SysTick_Handler) refers to main.o(.data) for QJJX_sw
    stm32f4xx_it.o(i.SysTick_Handler) refers to main.o(.data) for QJ_STAR
    stm32f4xx_it.o(i.SysTick_Handler) refers to main.o(.data) for TS_RD_wz
    stm32f4xx_it.o(i.SysTick_Handler) refers to main.o(.data) for YL_tnp
    stm32f4xx_it.o(i.SysTick_Handler) refers to moshicanshu.o(i.exczsfanwei_ST) for exczsfanwei_ST
    stm32f4xx_it.o(i.SysTick_Handler) refers to stm32f4xx_it.o(i.Read1_AM8192) for Read1_AM8192
    stm32f4xx_it.o(i.SysTick_Handler) refers to main.o(i.MX_TIM5_SET) for MX_TIM5_SET
    stm32f4xx_it.o(i.SysTick_Handler) refers to moshicanshu.o(i.jsfxwz) for jsfxwz
    stm32f4xx_it.o(i.SysTick_Handler) refers to main.o(.data) for DF_tim_en
    stm32f4xx_it.o(i.SysTick_Handler) refers to main.o(.data) for DP_DMS_dat
    stm32f4xx_it.o(i.SysTick_Handler) refers to main.o(.data) for F_W_AM8192_DAT
    stm32f4xx_it.o(i.SysTick_Handler) refers to main.o(.data) for FW_setp
    stm32f4xx_it.o(i.SysTick_Handler) refers to main.o(.data) for FW_equ
    stm32f4xx_it.o(i.SysTick_Handler) refers to main.o(.data) for FW_stop
    stm32f4xx_it.o(i.SysTick_Handler) refers to main.o(.data) for FW_tracking_STOP
    stm32f4xx_it.o(i.SysTick_Handler) refers to main.o(.data) for FW_bjdat
    stm32f4xx_it.o(i.SysTick_Handler) refers to main.o(.data) for FW_tracking
    stm32f4xx_it.o(i.SysTick_Handler) refers to main.o(.data) for F_W_AM8192_SET
    stm32f4xx_it.o(i.SysTick_Handler) refers to main.o(.data) for XJ_js_dat
    stm32f4xx_it.o(i.SysTick_Handler) refers to main.o(.data) for AM8192_CP
    stm32f4xx_it.o(i.SysTick_Handler) refers to main.o(.data) for EP_offset
    stm32f4xx_it.o(i.TIM2_IRQHandler) refers to stm32f4xx_hal_tim.o(i.HAL_TIM_IRQHandler) for HAL_TIM_IRQHandler
    stm32f4xx_it.o(i.TIM2_IRQHandler) refers to stm32f4xx_hal_gpio.o(i.HAL_GPIO_ReadPin) for HAL_GPIO_ReadPin
    stm32f4xx_it.o(i.TIM2_IRQHandler) refers to stm32f4xx_hal_gpio.o(i.HAL_GPIO_WritePin) for HAL_GPIO_WritePin
    stm32f4xx_it.o(i.TIM2_IRQHandler) refers to main.o(.bss) for htim2
    stm32f4xx_it.o(i.TIM2_IRQHandler) refers to main.o(.data) for BD_bjdat
    stm32f4xx_it.o(i.TIM2_IRQHandler) refers to main.o(.data) for AM8192_DAT
    stm32f4xx_it.o(i.TIM2_IRQHandler) refers to main.o(.data) for AM8192_CS
    stm32f4xx_it.o(i.TIM2_IRQHandler) refers to main.o(.data) for BD_cnc
    stm32f4xx_it.o(i.TIM2_IRQHandler) refers to main.o(.data) for BD_setp
    stm32f4xx_it.o(i.TIM2_IRQHandler) refers to main.o(.data) for BD_stop
    stm32f4xx_it.o(i.TIM2_IRQHandler) refers to main.o(.data) for BD_OPD
    stm32f4xx_it.o(i.TIM2_IRQHandler) refers to main.o(.data) for YL_dat
    stm32f4xx_it.o(i.TIM2_IRQHandler) refers to main.o(.data) for YL_min
    stm32f4xx_it.o(i.TIM2_IRQHandler) refers to main.o(.data) for YL_max
    stm32f4xx_it.o(i.TIM2_IRQHandler) refers to main.o(.data) for GD_CHA_OUT
    stm32f4xx_it.o(i.TIM2_IRQHandler) refers to main.o(.data) for GD_CHA_IN
    stm32f4xx_it.o(i.TIM2_IRQHandler) refers to main.o(.data) for BD_equ
    stm32f4xx_it.o(i.TIM3_IRQHandler) refers to stm32f4xx_hal_tim.o(i.HAL_TIM_IRQHandler) for HAL_TIM_IRQHandler
    stm32f4xx_it.o(i.TIM3_IRQHandler) refers to stm32f4xx_hal_gpio.o(i.HAL_GPIO_ReadPin) for HAL_GPIO_ReadPin
    stm32f4xx_it.o(i.TIM3_IRQHandler) refers to stm32f4xx_hal_gpio.o(i.HAL_GPIO_WritePin) for HAL_GPIO_WritePin
    stm32f4xx_it.o(i.TIM3_IRQHandler) refers to main.o(.bss) for htim3
    stm32f4xx_it.o(i.TIM3_IRQHandler) refers to main.o(.data) for EP_bjdat
    stm32f4xx_it.o(i.TIM3_IRQHandler) refers to stm32f4xx_it.o(.data) for .data
    stm32f4xx_it.o(i.TIM3_IRQHandler) refers to main.o(.data) for EP_offset
    stm32f4xx_it.o(i.TIM4_IRQHandler) refers to stm32f4xx_hal_tim.o(i.HAL_TIM_IRQHandler) for HAL_TIM_IRQHandler
    stm32f4xx_it.o(i.TIM4_IRQHandler) refers to stm32f4xx_hal_gpio.o(i.HAL_GPIO_ReadPin) for HAL_GPIO_ReadPin
    stm32f4xx_it.o(i.TIM4_IRQHandler) refers to stm32f4xx_hal_gpio.o(i.HAL_GPIO_WritePin) for HAL_GPIO_WritePin
    stm32f4xx_it.o(i.TIM4_IRQHandler) refers to main.o(.bss) for htim4
    stm32f4xx_it.o(i.TIM4_IRQHandler) refers to main.o(.data) for XJ_bjdat
    stm32f4xx_it.o(i.TIM4_IRQHandler) refers to main.o(.data) for XJ_js_dat
    stm32f4xx_it.o(i.TIM5_IRQHandler) refers to stm32f4xx_hal_tim.o(i.HAL_TIM_IRQHandler) for HAL_TIM_IRQHandler
    stm32f4xx_it.o(i.TIM5_IRQHandler) refers to stm32f4xx_hal_gpio.o(i.HAL_GPIO_ReadPin) for HAL_GPIO_ReadPin
    stm32f4xx_it.o(i.TIM5_IRQHandler) refers to stm32f4xx_hal_gpio.o(i.HAL_GPIO_WritePin) for HAL_GPIO_WritePin
    stm32f4xx_it.o(i.TIM5_IRQHandler) refers to main.o(.bss) for htim5
    stm32f4xx_it.o(i.TIM5_IRQHandler) refers to main.o(.data) for FW_bjdat
    stm32f4xx_it.o(i.TIM5_IRQHandler) refers to main.o(.data) for FW_setp
    stm32f4xx_it.o(i.TIM5_IRQHandler) refers to main.o(.data) for FW_stop
    stm32f4xx_it.o(i.XJ_ext) refers to stm32f4xx_hal_gpio.o(i.HAL_GPIO_WritePin) for HAL_GPIO_WritePin
    stm32f4xx_it.o(i.XJ_ext) refers to main.o(.data) for XJ_bjdat
    stm32f4xx_it.o(i.Z_H_SaoMiao) refers to stm32f4xx_it.o(i.HuanFan) for HuanFan
    stm32f4xx_it.o(i.Z_H_SaoMiao) refers to stm32f4xx_it.o(i.chk_kuaifan_24) for chk_kuaifan_24
    stm32f4xx_it.o(i.Z_H_SaoMiao) refers to stm32f4xx_it.o(i.allfwei) for allfwei
    stm32f4xx_it.o(i.Z_H_SaoMiao) refers to stm32f4xx_it.o(i.smypfwei) for smypfwei
    stm32f4xx_it.o(i.Z_H_SaoMiao) refers to moshicanshu.o(i.fweipandin) for fweipandin
    stm32f4xx_it.o(i.Z_H_SaoMiao) refers to stm32f4xx_it.o(i.chk_mowan) for chk_mowan
    stm32f4xx_it.o(i.Z_H_SaoMiao) refers to main.o(.data) for Run_MS
    stm32f4xx_it.o(i.Z_H_SaoMiao) refers to moshicanshu.o(.constdata) for pm4p1
    stm32f4xx_it.o(i.Z_H_SaoMiao) refers to main.o(.bss) for fanwei_data
    stm32f4xx_it.o(i.Z_H_SaoMiao) refers to main.o(.data) for tiaofan_enp
    stm32f4xx_it.o(i.allfwei) refers to main.o(.bss) for fanwei_data
    stm32f4xx_it.o(i.chk_kuaifan_24) refers to main.o(.data) for FanWei_XB
    stm32f4xx_it.o(i.chk_kuaifan_24) refers to main.o(.bss) for fanwei_data
    stm32f4xx_it.o(i.chk_mowan) refers to moshicanshu.o(.constdata) for pm4p1
    stm32f4xx_it.o(i.chk_mowan) refers to main.o(.bss) for fanwei_data
    stm32f4xx_it.o(i.smypfwei) refers to moshicanshu.o(i.fweipandin) for fweipandin
    stm32f4xx_it.o(i.smypfwei) refers to main.o(.bss) for fanwei_data
    stm32f4xx_it.o(i.smypfwei) refers to main.o(.data) for tiaofan_enp
    stm32f4xx_it.o(i.smypfwei) refers to main.o(.data) for shitouleixin
    moshicanshu.o(i.Can_WriteData) refers to stm32f4xx_hal_can.o(i.HAL_CAN_Transmit_IT) for HAL_CAN_Transmit_IT
    moshicanshu.o(i.Can_WriteData) refers to main.o(.bss) for TxMessage
    moshicanshu.o(i.Can_WriteData) refers to main.o(.data) for CAN_TX
    moshicanshu.o(i.Can_WriteData) refers to main.o(.bss) for hcan1
    moshicanshu.o(i.FW_Fixed_Exec) refers to moshicanshu.o(i.fweipandin) for fweipandin
    moshicanshu.o(i.FW_Fixed_Exec) refers to main.o(.data) for FW_Fixed
    moshicanshu.o(i.FW_Fixed_Exec) refers to main.o(.data) for f8_f16
    moshicanshu.o(i.FW_Fixed_Exec) refers to main.o(.bss) for fanwei_data
    moshicanshu.o(i.FW_Fixed_Exec) refers to main.o(.data) for tiaofan_enp
    moshicanshu.o(i.H_Xy_fan) refers to stm32f4xx_hal_gpio.o(i.HAL_GPIO_WritePin) for HAL_GPIO_WritePin
    moshicanshu.o(i.H_Xy_fan) refers to main.o(.data) for min_SD_dat
    moshicanshu.o(i.H_Xy_fan) refers to main.o(.data) for Read_dat_en
    moshicanshu.o(i.H_Xy_fan) refers to main.o(.data) for auto_YL_ts
    moshicanshu.o(i.H_Xy_fan) refers to main.o(.data) for RUN_out
    moshicanshu.o(i.H_Xy_fan) refers to main.o(.data) for H_F_check
    moshicanshu.o(i.H_Xy_fan) refers to main.o(.data) for AM8192_DAT
    moshicanshu.o(i.H_Xy_fan) refers to main.o(.data) for H_F_STOP_GD
    moshicanshu.o(i.clr_8192_RD) refers to main.o(.bss) for DMA_TX
    moshicanshu.o(i.clr_f16) refers to main.o(.bss) for fanwei_data
    moshicanshu.o(i.clr_f8) refers to main.o(.bss) for fanwei_data
    moshicanshu.o(i.dpdatclr) refers to main.o(.bss) for fanwei_data
    moshicanshu.o(i.excfanwei_STOP) refers to moshicanshu.o(i.jsfxwz) for jsfxwz
    moshicanshu.o(i.excfanwei_STOP) refers to stm32f4xx_hal_gpio.o(i.HAL_GPIO_WritePin) for HAL_GPIO_WritePin
    moshicanshu.o(i.excfanwei_STOP) refers to dflti.o(.text) for __aeabi_i2d
    moshicanshu.o(i.excfanwei_STOP) refers to dmul.o(.text) for __aeabi_dmul
    moshicanshu.o(i.excfanwei_STOP) refers to dfixui.o(.text) for __aeabi_d2uiz
    moshicanshu.o(i.excfanwei_STOP) refers to main.o(i.MX_TIM5_SET) for MX_TIM5_SET
    moshicanshu.o(i.excfanwei_STOP) refers to main.o(.data) for FanWei_XB
    moshicanshu.o(i.excfanwei_STOP) refers to main.o(.bss) for fanwei_data
    moshicanshu.o(i.excfanwei_STOP) refers to moshicanshu.o(.constdata) for .constdata
    moshicanshu.o(i.excfanwei_STOP) refers to main.o(.data) for F_W_AM8192_SET
    moshicanshu.o(i.excfanwei_STOP) refers to main.o(.data) for F_W_AM8192_DAT
    moshicanshu.o(i.excfanwei_STOP) refers to main.o(.data) for FW_bjdat
    moshicanshu.o(i.excfanwei_STOP) refers to main.o(.data) for FW_equ
    moshicanshu.o(i.excfanwei_STOP) refers to main.o(.data) for FW_setp
    moshicanshu.o(i.excfanwei_STOP) refers to main.o(.data) for FW_stop
    moshicanshu.o(i.excfanwei_STOP) refers to main.o(.data) for FW_tracking_STOP
    moshicanshu.o(i.excfanwei_STOP) refers to main.o(.data) for FW_tracking
    moshicanshu.o(i.excomm_QJkz) refers to moshicanshu.o(i.Can_WriteData) for Can_WriteData
    moshicanshu.o(i.excomm_QJkz) refers to main.o(.bss) for ROM_Data
    moshicanshu.o(i.excomm_QJkz) refers to main.o(.data) for CAN_TX
    moshicanshu.o(i.exczsfanwei_BJ) refers to moshicanshu.o(i.Can_WriteData) for Can_WriteData
    moshicanshu.o(i.exczsfanwei_BJ) refers to main.o(.data) for CAN_TX
    moshicanshu.o(i.exczsfanwei_BJ) refers to main.o(.data) for START_JD
    moshicanshu.o(i.exczsfanwei_BJ) refers to main.o(.data) for COMM_CF
    moshicanshu.o(i.exczsfanwei_BJ) refers to main.o(.data) for XJ_en
    moshicanshu.o(i.exczsfanwei_ST) refers to moshicanshu.o(i.Can_WriteData) for Can_WriteData
    moshicanshu.o(i.exczsfanwei_ST) refers to main.o(.data) for CAN_TX
    moshicanshu.o(i.exczsfanwei_ST) refers to main.o(.data) for COMM_CF
    moshicanshu.o(i.exppfw) refers to stm32f4xx_hal_gpio.o(i.HAL_GPIO_ReadPin) for HAL_GPIO_ReadPin
    moshicanshu.o(i.exppfw) refers to moshicanshu.o(i.jsfxwz) for jsfxwz
    moshicanshu.o(i.exppfw) refers to stm32f4xx_hal_gpio.o(i.HAL_GPIO_WritePin) for HAL_GPIO_WritePin
    moshicanshu.o(i.exppfw) refers to dflti.o(.text) for __aeabi_i2d
    moshicanshu.o(i.exppfw) refers to dmul.o(.text) for __aeabi_dmul
    moshicanshu.o(i.exppfw) refers to dfixui.o(.text) for __aeabi_d2uiz
    moshicanshu.o(i.exppfw) refers to main.o(i.MX_TIM5_SET) for MX_TIM5_SET
    moshicanshu.o(i.exppfw) refers to main.o(.data) for FanWei_XB
    moshicanshu.o(i.exppfw) refers to main.o(.bss) for fanwei_data
    moshicanshu.o(i.exppfw) refers to moshicanshu.o(.constdata) for .constdata
    moshicanshu.o(i.exppfw) refers to main.o(.data) for F_W_AM8192_SET
    moshicanshu.o(i.exppfw) refers to main.o(.data) for F_W_AM8192_DAT
    moshicanshu.o(i.exppfw) refers to main.o(.data) for FW_bjdat
    moshicanshu.o(i.exppfw) refers to main.o(.data) for FW_equ
    moshicanshu.o(i.exppfw) refers to main.o(.data) for FW_setp
    moshicanshu.o(i.exppfw) refers to main.o(.data) for FW_stop
    moshicanshu.o(i.exppfw) refers to main.o(.data) for FW_tracking_STOP
    moshicanshu.o(i.exppfw) refers to main.o(.data) for FW_tracking
    moshicanshu.o(i.fanchafanweixiabiao) refers to moshicanshu.o(.constdata) for .constdata
    moshicanshu.o(i.fweipandin) refers to moshicanshu.o(.data) for .data
    moshicanshu.o(.data) refers to moshicanshu.o(.constdata) for pm4p1
    moshicanshu.o(.data) refers to moshicanshu.o(.constdata) for pm4p2
    moshicanshu.o(.data) refers to moshicanshu.o(.constdata) for pm4p11
    moshicanshu.o(.data) refers to moshicanshu.o(.constdata) for pm4p21
    moshicanshu.o(.data) refers to moshicanshu.o(.constdata) for pm4p1
    moshicanshu.o(.data) refers to moshicanshu.o(.constdata) for pm4p2
    moshicanshu.o(.data) refers to moshicanshu.o(.constdata) for pm4p11
    moshicanshu.o(.data) refers to moshicanshu.o(.constdata) for pm4p21
    moshicanshu.o(.data) refers to moshicanshu.o(.constdata) for pm4p1
    moshicanshu.o(.data) refers to moshicanshu.o(.constdata) for pm4p2
    moshicanshu.o(.data) refers to moshicanshu.o(.constdata) for pm4p11
    moshicanshu.o(.data) refers to moshicanshu.o(.constdata) for pm4p21
    moshicanshu.o(.data) refers to moshicanshu.o(.data) for Pm4
    moshicanshu.o(.data) refers to moshicanshu.o(.data) for Pm2
    moshicanshu.o(.data) refers to moshicanshu.o(.data) for Pm3
    moshicanshu.o(.data) refers to moshicanshu.o(.data) for Pm41
    moshicanshu.o(.data) refers to moshicanshu.o(.data) for Pm21
    moshicanshu.o(.data) refers to moshicanshu.o(.data) for Pm31
    moshicanshu.o(.data) refers to moshicanshu.o(.constdata) for p401
    moshicanshu.o(.data) refers to moshicanshu.o(.constdata) for p402
    moshicanshu.o(.data) refers to moshicanshu.o(.constdata) for p403
    moshicanshu.o(.data) refers to moshicanshu.o(.constdata) for p404
    moshicanshu.o(.data) refers to moshicanshu.o(.constdata) for p405
    moshicanshu.o(.data) refers to moshicanshu.o(.constdata) for p406
    moshicanshu.o(.data) refers to moshicanshu.o(.constdata) for p407
    moshicanshu.o(.data) refers to moshicanshu.o(.constdata) for p408
    moshicanshu.o(.data) refers to moshicanshu.o(.constdata) for p409
    moshicanshu.o(.data) refers to moshicanshu.o(.constdata) for p410
    moshicanshu.o(.data) refers to moshicanshu.o(.constdata) for p411
    moshicanshu.o(.data) refers to moshicanshu.o(.constdata) for p412
    moshicanshu.o(.data) refers to moshicanshu.o(.constdata) for p413
    moshicanshu.o(.data) refers to moshicanshu.o(.constdata) for p414
    moshicanshu.o(.data) refers to moshicanshu.o(.constdata) for p415
    moshicanshu.o(.data) refers to moshicanshu.o(.constdata) for p416
    moshicanshu.o(.data) refers to moshicanshu.o(.constdata) for p4101
    moshicanshu.o(.data) refers to moshicanshu.o(.constdata) for p4102
    moshicanshu.o(.data) refers to moshicanshu.o(.constdata) for p4103
    moshicanshu.o(.data) refers to moshicanshu.o(.constdata) for p4104
    moshicanshu.o(.data) refers to moshicanshu.o(.constdata) for p4105
    moshicanshu.o(.data) refers to moshicanshu.o(.constdata) for p4106
    moshicanshu.o(.data) refers to moshicanshu.o(.constdata) for p4107
    moshicanshu.o(.data) refers to moshicanshu.o(.constdata) for p4108
    moshicanshu.o(.data) refers to moshicanshu.o(.constdata) for p4109
    moshicanshu.o(.data) refers to moshicanshu.o(.constdata) for p4110
    moshicanshu.o(.data) refers to moshicanshu.o(.constdata) for p4111
    moshicanshu.o(.data) refers to moshicanshu.o(.constdata) for p4112
    moshicanshu.o(.data) refers to moshicanshu.o(.constdata) for p4113
    moshicanshu.o(.data) refers to moshicanshu.o(.constdata) for p4114
    moshicanshu.o(.data) refers to moshicanshu.o(.constdata) for p4115
    moshicanshu.o(.data) refers to moshicanshu.o(.constdata) for p4116
    moshicanshu.o(.data) refers to moshicanshu.o(.constdata) for p4201
    moshicanshu.o(.data) refers to moshicanshu.o(.constdata) for p4202
    moshicanshu.o(.data) refers to moshicanshu.o(.constdata) for p4203
    moshicanshu.o(.data) refers to moshicanshu.o(.constdata) for p4204
    moshicanshu.o(.data) refers to moshicanshu.o(.constdata) for p4205
    moshicanshu.o(.data) refers to moshicanshu.o(.constdata) for p4206
    moshicanshu.o(.data) refers to moshicanshu.o(.constdata) for p4207
    moshicanshu.o(.data) refers to moshicanshu.o(.constdata) for p4208
    moshicanshu.o(.data) refers to moshicanshu.o(.constdata) for p4209
    moshicanshu.o(.data) refers to moshicanshu.o(.constdata) for p4210
    moshicanshu.o(.data) refers to moshicanshu.o(.constdata) for p4211
    moshicanshu.o(.data) refers to moshicanshu.o(.constdata) for p4212
    moshicanshu.o(.data) refers to moshicanshu.o(.constdata) for p4213
    moshicanshu.o(.data) refers to moshicanshu.o(.constdata) for p4214
    moshicanshu.o(.data) refers to moshicanshu.o(.constdata) for p4215
    moshicanshu.o(.data) refers to moshicanshu.o(.constdata) for p4216
    moshicanshu.o(.data) refers to moshicanshu.o(.constdata) for p4301
    moshicanshu.o(.data) refers to moshicanshu.o(.constdata) for p4302
    moshicanshu.o(.data) refers to moshicanshu.o(.constdata) for p4303
    moshicanshu.o(.data) refers to moshicanshu.o(.constdata) for p4304
    moshicanshu.o(.data) refers to moshicanshu.o(.constdata) for p4305
    moshicanshu.o(.data) refers to moshicanshu.o(.constdata) for p4306
    moshicanshu.o(.data) refers to moshicanshu.o(.constdata) for p4307
    moshicanshu.o(.data) refers to moshicanshu.o(.constdata) for p4308
    moshicanshu.o(.data) refers to moshicanshu.o(.constdata) for p4309
    moshicanshu.o(.data) refers to moshicanshu.o(.constdata) for p4310
    moshicanshu.o(.data) refers to moshicanshu.o(.constdata) for p4311
    moshicanshu.o(.data) refers to moshicanshu.o(.constdata) for p4312
    moshicanshu.o(.data) refers to moshicanshu.o(.constdata) for p4313
    moshicanshu.o(.data) refers to moshicanshu.o(.constdata) for p4314
    moshicanshu.o(.data) refers to moshicanshu.o(.constdata) for p4315
    moshicanshu.o(.data) refers to moshicanshu.o(.constdata) for p4316
    moshicanshu.o(.data) refers to moshicanshu.o(.constdata) for p201
    moshicanshu.o(.data) refers to moshicanshu.o(.constdata) for p202
    moshicanshu.o(.data) refers to moshicanshu.o(.constdata) for p203
    moshicanshu.o(.data) refers to moshicanshu.o(.constdata) for p204
    moshicanshu.o(.data) refers to moshicanshu.o(.constdata) for p205
    moshicanshu.o(.data) refers to moshicanshu.o(.constdata) for p206
    moshicanshu.o(.data) refers to moshicanshu.o(.constdata) for p207
    moshicanshu.o(.data) refers to moshicanshu.o(.constdata) for p208
    moshicanshu.o(.data) refers to moshicanshu.o(.constdata) for p209
    moshicanshu.o(.data) refers to moshicanshu.o(.constdata) for p210
    moshicanshu.o(.data) refers to moshicanshu.o(.constdata) for p211
    moshicanshu.o(.data) refers to moshicanshu.o(.constdata) for p212
    moshicanshu.o(.data) refers to moshicanshu.o(.constdata) for p213
    moshicanshu.o(.data) refers to moshicanshu.o(.constdata) for p214
    moshicanshu.o(.data) refers to moshicanshu.o(.constdata) for p215
    moshicanshu.o(.data) refers to moshicanshu.o(.constdata) for p216
    moshicanshu.o(.data) refers to moshicanshu.o(.constdata) for p2101
    moshicanshu.o(.data) refers to moshicanshu.o(.constdata) for p2102
    moshicanshu.o(.data) refers to moshicanshu.o(.constdata) for p2103
    moshicanshu.o(.data) refers to moshicanshu.o(.constdata) for p2104
    moshicanshu.o(.data) refers to moshicanshu.o(.constdata) for p2105
    moshicanshu.o(.data) refers to moshicanshu.o(.constdata) for p2106
    moshicanshu.o(.data) refers to moshicanshu.o(.constdata) for p2107
    moshicanshu.o(.data) refers to moshicanshu.o(.constdata) for p2108
    moshicanshu.o(.data) refers to moshicanshu.o(.constdata) for p2109
    moshicanshu.o(.data) refers to moshicanshu.o(.constdata) for p2110
    moshicanshu.o(.data) refers to moshicanshu.o(.constdata) for p2111
    moshicanshu.o(.data) refers to moshicanshu.o(.constdata) for p2112
    moshicanshu.o(.data) refers to moshicanshu.o(.constdata) for p2113
    moshicanshu.o(.data) refers to moshicanshu.o(.constdata) for p2114
    moshicanshu.o(.data) refers to moshicanshu.o(.constdata) for p2115
    moshicanshu.o(.data) refers to moshicanshu.o(.constdata) for p2116
    moshicanshu.o(.data) refers to moshicanshu.o(.constdata) for p301
    moshicanshu.o(.data) refers to moshicanshu.o(.constdata) for p302
    moshicanshu.o(.data) refers to moshicanshu.o(.constdata) for p303
    moshicanshu.o(.data) refers to moshicanshu.o(.constdata) for p304
    moshicanshu.o(.data) refers to moshicanshu.o(.constdata) for p305
    moshicanshu.o(.data) refers to moshicanshu.o(.constdata) for p306
    moshicanshu.o(.data) refers to moshicanshu.o(.constdata) for p307
    moshicanshu.o(.data) refers to moshicanshu.o(.constdata) for p308
    moshicanshu.o(.data) refers to moshicanshu.o(.constdata) for p309
    moshicanshu.o(.data) refers to moshicanshu.o(.constdata) for p310
    moshicanshu.o(.data) refers to moshicanshu.o(.constdata) for p311
    moshicanshu.o(.data) refers to moshicanshu.o(.constdata) for p312
    moshicanshu.o(.data) refers to moshicanshu.o(.constdata) for p313
    moshicanshu.o(.data) refers to moshicanshu.o(.constdata) for p314
    moshicanshu.o(.data) refers to moshicanshu.o(.constdata) for p315
    moshicanshu.o(.data) refers to moshicanshu.o(.constdata) for p316
    moshicanshu.o(.data) refers to moshicanshu.o(.constdata) for p301
    moshicanshu.o(.data) refers to moshicanshu.o(.constdata) for p302
    moshicanshu.o(.data) refers to moshicanshu.o(.constdata) for p303
    moshicanshu.o(.data) refers to moshicanshu.o(.constdata) for p304
    moshicanshu.o(.data) refers to moshicanshu.o(.constdata) for p305
    moshicanshu.o(.data) refers to moshicanshu.o(.constdata) for p306
    moshicanshu.o(.data) refers to moshicanshu.o(.constdata) for p307
    moshicanshu.o(.data) refers to moshicanshu.o(.constdata) for p308
    moshicanshu.o(.data) refers to moshicanshu.o(.constdata) for p309
    moshicanshu.o(.data) refers to moshicanshu.o(.constdata) for p310
    moshicanshu.o(.data) refers to moshicanshu.o(.constdata) for p311
    moshicanshu.o(.data) refers to moshicanshu.o(.constdata) for p312
    moshicanshu.o(.data) refers to moshicanshu.o(.constdata) for p313
    moshicanshu.o(.data) refers to moshicanshu.o(.constdata) for p314
    moshicanshu.o(.data) refers to moshicanshu.o(.constdata) for p315
    moshicanshu.o(.data) refers to moshicanshu.o(.constdata) for p316
    moshicanshu.o(.data) refers to moshicanshu.o(.data) for P41
    moshicanshu.o(.data) refers to moshicanshu.o(.data) for P42
    moshicanshu.o(.data) refers to moshicanshu.o(.data) for P43
    moshicanshu.o(.data) refers to moshicanshu.o(.data) for P44
    moshicanshu.o(.data) refers to moshicanshu.o(.data) for P21
    moshicanshu.o(.data) refers to moshicanshu.o(.data) for P22
    moshicanshu.o(.data) refers to moshicanshu.o(.data) for P31
    moshicanshu.o(.data) refers to moshicanshu.o(.data) for P32
    moshicanshu.o(.data) refers to moshicanshu.o(.constdata) for mpm4p1
    moshicanshu.o(.data) refers to moshicanshu.o(.constdata) for mpm4p2
    moshicanshu.o(.data) refers to moshicanshu.o(.constdata) for mpm4p1
    moshicanshu.o(.data) refers to moshicanshu.o(.constdata) for mpm4p2
    moshicanshu.o(.data) refers to moshicanshu.o(.constdata) for mpm4p1
    moshicanshu.o(.data) refers to moshicanshu.o(.constdata) for mpm4p2
    moshicanshu.o(.data) refers to moshicanshu.o(.data) for mPm4
    moshicanshu.o(.data) refers to moshicanshu.o(.data) for mPm2
    moshicanshu.o(.data) refers to moshicanshu.o(.data) for mPm3
    moshicanshu.o(.data) refers to moshicanshu.o(.constdata) for mp401
    moshicanshu.o(.data) refers to moshicanshu.o(.constdata) for mp402
    moshicanshu.o(.data) refers to moshicanshu.o(.constdata) for mp403
    moshicanshu.o(.data) refers to moshicanshu.o(.constdata) for mp404
    moshicanshu.o(.data) refers to moshicanshu.o(.constdata) for mp405
    moshicanshu.o(.data) refers to moshicanshu.o(.constdata) for mp406
    moshicanshu.o(.data) refers to moshicanshu.o(.constdata) for mp407
    moshicanshu.o(.data) refers to moshicanshu.o(.constdata) for mp408
    moshicanshu.o(.data) refers to moshicanshu.o(.constdata) for mp409
    moshicanshu.o(.data) refers to moshicanshu.o(.constdata) for mp410
    moshicanshu.o(.data) refers to moshicanshu.o(.constdata) for mp411
    moshicanshu.o(.data) refers to moshicanshu.o(.constdata) for mp412
    moshicanshu.o(.data) refers to moshicanshu.o(.constdata) for mp413
    moshicanshu.o(.data) refers to moshicanshu.o(.constdata) for mp414
    moshicanshu.o(.data) refers to moshicanshu.o(.constdata) for mp415
    moshicanshu.o(.data) refers to moshicanshu.o(.constdata) for mp416
    moshicanshu.o(.data) refers to moshicanshu.o(.constdata) for mp4101
    moshicanshu.o(.data) refers to moshicanshu.o(.constdata) for mp4102
    moshicanshu.o(.data) refers to moshicanshu.o(.constdata) for mp4103
    moshicanshu.o(.data) refers to moshicanshu.o(.constdata) for mp4104
    moshicanshu.o(.data) refers to moshicanshu.o(.constdata) for mp4105
    moshicanshu.o(.data) refers to moshicanshu.o(.constdata) for mp4106
    moshicanshu.o(.data) refers to moshicanshu.o(.constdata) for mp4107
    moshicanshu.o(.data) refers to moshicanshu.o(.constdata) for mp4108
    moshicanshu.o(.data) refers to moshicanshu.o(.constdata) for mp4109
    moshicanshu.o(.data) refers to moshicanshu.o(.constdata) for mp4110
    moshicanshu.o(.data) refers to moshicanshu.o(.constdata) for mp4111
    moshicanshu.o(.data) refers to moshicanshu.o(.constdata) for mp4112
    moshicanshu.o(.data) refers to moshicanshu.o(.constdata) for mp4113
    moshicanshu.o(.data) refers to moshicanshu.o(.constdata) for mp4114
    moshicanshu.o(.data) refers to moshicanshu.o(.constdata) for mp4115
    moshicanshu.o(.data) refers to moshicanshu.o(.constdata) for mp4116
    moshicanshu.o(.data) refers to moshicanshu.o(.constdata) for mp4201
    moshicanshu.o(.data) refers to moshicanshu.o(.constdata) for mp4202
    moshicanshu.o(.data) refers to moshicanshu.o(.constdata) for mp4203
    moshicanshu.o(.data) refers to moshicanshu.o(.constdata) for mp4204
    moshicanshu.o(.data) refers to moshicanshu.o(.constdata) for mp4205
    moshicanshu.o(.data) refers to moshicanshu.o(.constdata) for mp4206
    moshicanshu.o(.data) refers to moshicanshu.o(.constdata) for mp4207
    moshicanshu.o(.data) refers to moshicanshu.o(.constdata) for mp4208
    moshicanshu.o(.data) refers to moshicanshu.o(.constdata) for mp4209
    moshicanshu.o(.data) refers to moshicanshu.o(.constdata) for mp4210
    moshicanshu.o(.data) refers to moshicanshu.o(.constdata) for mp4211
    moshicanshu.o(.data) refers to moshicanshu.o(.constdata) for mp4212
    moshicanshu.o(.data) refers to moshicanshu.o(.constdata) for mp4213
    moshicanshu.o(.data) refers to moshicanshu.o(.constdata) for mp4214
    moshicanshu.o(.data) refers to moshicanshu.o(.constdata) for mp4215
    moshicanshu.o(.data) refers to moshicanshu.o(.constdata) for mp4216
    moshicanshu.o(.data) refers to moshicanshu.o(.constdata) for mp4301
    moshicanshu.o(.data) refers to moshicanshu.o(.constdata) for mp4302
    moshicanshu.o(.data) refers to moshicanshu.o(.constdata) for mp4303
    moshicanshu.o(.data) refers to moshicanshu.o(.constdata) for mp4304
    moshicanshu.o(.data) refers to moshicanshu.o(.constdata) for mp4305
    moshicanshu.o(.data) refers to moshicanshu.o(.constdata) for mp4306
    moshicanshu.o(.data) refers to moshicanshu.o(.constdata) for mp4307
    moshicanshu.o(.data) refers to moshicanshu.o(.constdata) for mp4308
    moshicanshu.o(.data) refers to moshicanshu.o(.constdata) for mp4309
    moshicanshu.o(.data) refers to moshicanshu.o(.constdata) for mp4310
    moshicanshu.o(.data) refers to moshicanshu.o(.constdata) for mp4311
    moshicanshu.o(.data) refers to moshicanshu.o(.constdata) for mp4312
    moshicanshu.o(.data) refers to moshicanshu.o(.constdata) for mp4313
    moshicanshu.o(.data) refers to moshicanshu.o(.constdata) for mp4314
    moshicanshu.o(.data) refers to moshicanshu.o(.constdata) for mp4315
    moshicanshu.o(.data) refers to moshicanshu.o(.constdata) for mp4316
    moshicanshu.o(.data) refers to moshicanshu.o(.constdata) for mp201
    moshicanshu.o(.data) refers to moshicanshu.o(.constdata) for mp202
    moshicanshu.o(.data) refers to moshicanshu.o(.constdata) for mp203
    moshicanshu.o(.data) refers to moshicanshu.o(.constdata) for mp204
    moshicanshu.o(.data) refers to moshicanshu.o(.constdata) for mp205
    moshicanshu.o(.data) refers to moshicanshu.o(.constdata) for mp206
    moshicanshu.o(.data) refers to moshicanshu.o(.constdata) for mp207
    moshicanshu.o(.data) refers to moshicanshu.o(.constdata) for mp208
    moshicanshu.o(.data) refers to moshicanshu.o(.constdata) for mp209
    moshicanshu.o(.data) refers to moshicanshu.o(.constdata) for mp210
    moshicanshu.o(.data) refers to moshicanshu.o(.constdata) for mp211
    moshicanshu.o(.data) refers to moshicanshu.o(.constdata) for mp212
    moshicanshu.o(.data) refers to moshicanshu.o(.constdata) for mp213
    moshicanshu.o(.data) refers to moshicanshu.o(.constdata) for mp214
    moshicanshu.o(.data) refers to moshicanshu.o(.constdata) for mp215
    moshicanshu.o(.data) refers to moshicanshu.o(.constdata) for mp216
    moshicanshu.o(.data) refers to moshicanshu.o(.constdata) for mp2101
    moshicanshu.o(.data) refers to moshicanshu.o(.constdata) for mp2102
    moshicanshu.o(.data) refers to moshicanshu.o(.constdata) for mp2103
    moshicanshu.o(.data) refers to moshicanshu.o(.constdata) for mp2104
    moshicanshu.o(.data) refers to moshicanshu.o(.constdata) for mp2105
    moshicanshu.o(.data) refers to moshicanshu.o(.constdata) for mp2106
    moshicanshu.o(.data) refers to moshicanshu.o(.constdata) for mp2107
    moshicanshu.o(.data) refers to moshicanshu.o(.constdata) for mp2108
    moshicanshu.o(.data) refers to moshicanshu.o(.constdata) for mp2109
    moshicanshu.o(.data) refers to moshicanshu.o(.constdata) for mp2110
    moshicanshu.o(.data) refers to moshicanshu.o(.constdata) for mp2111
    moshicanshu.o(.data) refers to moshicanshu.o(.constdata) for mp2112
    moshicanshu.o(.data) refers to moshicanshu.o(.constdata) for mp2113
    moshicanshu.o(.data) refers to moshicanshu.o(.constdata) for mp2114
    moshicanshu.o(.data) refers to moshicanshu.o(.constdata) for mp2115
    moshicanshu.o(.data) refers to moshicanshu.o(.constdata) for mp2116
    moshicanshu.o(.data) refers to moshicanshu.o(.constdata) for mp301
    moshicanshu.o(.data) refers to moshicanshu.o(.constdata) for mp302
    moshicanshu.o(.data) refers to moshicanshu.o(.constdata) for mp303
    moshicanshu.o(.data) refers to moshicanshu.o(.constdata) for mp304
    moshicanshu.o(.data) refers to moshicanshu.o(.constdata) for mp305
    moshicanshu.o(.data) refers to moshicanshu.o(.constdata) for mp306
    moshicanshu.o(.data) refers to moshicanshu.o(.constdata) for mp307
    moshicanshu.o(.data) refers to moshicanshu.o(.constdata) for mp308
    moshicanshu.o(.data) refers to moshicanshu.o(.constdata) for mp309
    moshicanshu.o(.data) refers to moshicanshu.o(.constdata) for mp310
    moshicanshu.o(.data) refers to moshicanshu.o(.constdata) for mp311
    moshicanshu.o(.data) refers to moshicanshu.o(.constdata) for mp312
    moshicanshu.o(.data) refers to moshicanshu.o(.constdata) for mp313
    moshicanshu.o(.data) refers to moshicanshu.o(.constdata) for mp314
    moshicanshu.o(.data) refers to moshicanshu.o(.constdata) for mp315
    moshicanshu.o(.data) refers to moshicanshu.o(.constdata) for mp316
    moshicanshu.o(.data) refers to moshicanshu.o(.constdata) for mp301
    moshicanshu.o(.data) refers to moshicanshu.o(.constdata) for mp302
    moshicanshu.o(.data) refers to moshicanshu.o(.constdata) for mp303
    moshicanshu.o(.data) refers to moshicanshu.o(.constdata) for mp304
    moshicanshu.o(.data) refers to moshicanshu.o(.constdata) for mp305
    moshicanshu.o(.data) refers to moshicanshu.o(.constdata) for mp306
    moshicanshu.o(.data) refers to moshicanshu.o(.constdata) for mp307
    moshicanshu.o(.data) refers to moshicanshu.o(.constdata) for mp308
    moshicanshu.o(.data) refers to moshicanshu.o(.constdata) for mp309
    moshicanshu.o(.data) refers to moshicanshu.o(.constdata) for mp310
    moshicanshu.o(.data) refers to moshicanshu.o(.constdata) for mp311
    moshicanshu.o(.data) refers to moshicanshu.o(.constdata) for mp312
    moshicanshu.o(.data) refers to moshicanshu.o(.constdata) for mp313
    moshicanshu.o(.data) refers to moshicanshu.o(.constdata) for mp314
    moshicanshu.o(.data) refers to moshicanshu.o(.constdata) for mp315
    moshicanshu.o(.data) refers to moshicanshu.o(.constdata) for mp316
    moshicanshu.o(.data) refers to moshicanshu.o(.data) for mp41
    moshicanshu.o(.data) refers to moshicanshu.o(.data) for mp42
    moshicanshu.o(.data) refers to moshicanshu.o(.data) for mp43
    moshicanshu.o(.data) refers to moshicanshu.o(.data) for mp44
    moshicanshu.o(.data) refers to moshicanshu.o(.data) for mp21
    moshicanshu.o(.data) refers to moshicanshu.o(.data) for mp22
    moshicanshu.o(.data) refers to moshicanshu.o(.data) for mp31
    moshicanshu.o(.data) refers to moshicanshu.o(.data) for mp32
    entry.o(.ARM.Collect$$$$00000000) refers (Special) to entry10a.o(.ARM.Collect$$$$0000000D) for __rt_final_cpp
    entry.o(.ARM.Collect$$$$00000000) refers (Special) to entry11a.o(.ARM.Collect$$$$0000000F) for __rt_final_exit
    entry.o(.ARM.Collect$$$$00000000) refers (Special) to entry7b.o(.ARM.Collect$$$$00000008) for _main_clock
    entry.o(.ARM.Collect$$$$00000000) refers (Special) to entry8b.o(.ARM.Collect$$$$0000000A) for _main_cpp_init
    entry.o(.ARM.Collect$$$$00000000) refers (Special) to entry9a.o(.ARM.Collect$$$$0000000B) for _main_init
    entry.o(.ARM.Collect$$$$00000000) refers (Special) to entry5.o(.ARM.Collect$$$$00000004) for _main_scatterload
    entry.o(.ARM.Collect$$$$00000000) refers (Special) to entry2.o(.ARM.Collect$$$$00000001) for _main_stk
    dmul.o(.text) refers (Special) to iusefp.o(.text) for __I$use$fp
    dmul.o(.text) refers to depilogue.o(.text) for _double_epilogue
    ddiv.o(.text) refers (Special) to iusefp.o(.text) for __I$use$fp
    ddiv.o(.text) refers to depilogue.o(.text) for _double_round
    dflti.o(.text) refers (Special) to iusefp.o(.text) for __I$use$fp
    dflti.o(.text) refers to depilogue.o(.text) for _double_epilogue
    dfltui.o(.text) refers (Special) to iusefp.o(.text) for __I$use$fp
    dfltui.o(.text) refers to depilogue.o(.text) for _double_epilogue
    dfixi.o(.text) refers (Special) to iusefp.o(.text) for __I$use$fp
    dfixi.o(.text) refers to llushr.o(.text) for __aeabi_llsr
    dfixui.o(.text) refers (Special) to iusefp.o(.text) for __I$use$fp
    dfixui.o(.text) refers to llushr.o(.text) for __aeabi_llsr
    f2d.o(.text) refers (Special) to iusefp.o(.text) for __I$use$fp
    d2f.o(.text) refers (Special) to iusefp.o(.text) for __I$use$fp
    d2f.o(.text) refers to fepilogue.o(.text) for _float_round
    entry2.o(.ARM.Collect$$$$00000001) refers to entry2.o(.ARM.Collect$$$$00002712) for __lit__00000000
    entry2.o(.ARM.Collect$$$$00002712) refers to startup_stm32f405xx.o(STACK) for __initial_sp
    entry2.o(__vectab_stack_and_reset_area) refers to startup_stm32f405xx.o(STACK) for __initial_sp
    entry2.o(__vectab_stack_and_reset_area) refers to entry.o(.ARM.Collect$$$$00000000) for __main
    entry5.o(.ARM.Collect$$$$00000004) refers to init.o(.text) for __scatterload
    entry9a.o(.ARM.Collect$$$$0000000B) refers to main.o(i.main) for main
    entry9b.o(.ARM.Collect$$$$0000000C) refers to main.o(i.main) for main
    depilogue.o(.text) refers to llshl.o(.text) for __aeabi_llsl
    depilogue.o(.text) refers to llushr.o(.text) for __aeabi_llsr
    init.o(.text) refers to entry5.o(.ARM.Collect$$$$00000004) for __main_after_scatterload


==============================================================================

Removing Unused input sections from the image.

    Removing stm32f4xx_hal_can.o(.rev16_text), (4 bytes).
    Removing stm32f4xx_hal_can.o(.revsh_text), (4 bytes).
    Removing stm32f4xx_hal_can.o(.rrx_text), (6 bytes).
    Removing stm32f4xx_hal_can.o(i.HAL_CAN_DeInit), (32 bytes).
    Removing stm32f4xx_hal_can.o(i.HAL_CAN_GetError), (4 bytes).
    Removing stm32f4xx_hal_can.o(i.HAL_CAN_GetState), (6 bytes).
    Removing stm32f4xx_hal_can.o(i.HAL_CAN_MspDeInit), (2 bytes).
    Removing stm32f4xx_hal_can.o(i.HAL_CAN_MspInit), (2 bytes).
    Removing stm32f4xx_hal_can.o(i.HAL_CAN_Receive), (470 bytes).
    Removing stm32f4xx_hal_can.o(i.HAL_CAN_Sleep), (118 bytes).
    Removing stm32f4xx_hal_can.o(i.HAL_CAN_Transmit), (460 bytes).
    Removing stm32f4xx_hal_can.o(i.HAL_CAN_WakeUp), (106 bytes).
    Removing stm32f4xx_hal_tim.o(.rev16_text), (4 bytes).
    Removing stm32f4xx_hal_tim.o(.revsh_text), (4 bytes).
    Removing stm32f4xx_hal_tim.o(.rrx_text), (6 bytes).
    Removing stm32f4xx_hal_tim.o(i.HAL_TIM_Base_DeInit), (56 bytes).
    Removing stm32f4xx_hal_tim.o(i.HAL_TIM_Base_GetState), (6 bytes).
    Removing stm32f4xx_hal_tim.o(i.HAL_TIM_Base_MspDeInit), (2 bytes).
    Removing stm32f4xx_hal_tim.o(i.HAL_TIM_Base_MspInit), (2 bytes).
    Removing stm32f4xx_hal_tim.o(i.HAL_TIM_Base_Start), (26 bytes).
    Removing stm32f4xx_hal_tim.o(i.HAL_TIM_Base_Start_DMA), (92 bytes).
    Removing stm32f4xx_hal_tim.o(i.HAL_TIM_Base_Stop), (44 bytes).
    Removing stm32f4xx_hal_tim.o(i.HAL_TIM_Base_Stop_DMA), (48 bytes).
    Removing stm32f4xx_hal_tim.o(i.HAL_TIM_Base_Stop_IT), (42 bytes).
    Removing stm32f4xx_hal_tim.o(i.HAL_TIM_ConfigOCrefClear), (174 bytes).
    Removing stm32f4xx_hal_tim.o(i.HAL_TIM_ConfigTI1Input), (16 bytes).
    Removing stm32f4xx_hal_tim.o(i.HAL_TIM_DMABurst_ReadStart), (260 bytes).
    Removing stm32f4xx_hal_tim.o(i.HAL_TIM_DMABurst_ReadStop), (96 bytes).
    Removing stm32f4xx_hal_tim.o(i.HAL_TIM_DMABurst_WriteStart), (260 bytes).
    Removing stm32f4xx_hal_tim.o(i.HAL_TIM_DMABurst_WriteStop), (96 bytes).
    Removing stm32f4xx_hal_tim.o(i.HAL_TIM_Encoder_DeInit), (56 bytes).
    Removing stm32f4xx_hal_tim.o(i.HAL_TIM_Encoder_GetState), (6 bytes).
    Removing stm32f4xx_hal_tim.o(i.HAL_TIM_Encoder_Init), (150 bytes).
    Removing stm32f4xx_hal_tim.o(i.HAL_TIM_Encoder_MspDeInit), (2 bytes).
    Removing stm32f4xx_hal_tim.o(i.HAL_TIM_Encoder_MspInit), (2 bytes).
    Removing stm32f4xx_hal_tim.o(i.HAL_TIM_Encoder_Start), (52 bytes).
    Removing stm32f4xx_hal_tim.o(i.HAL_TIM_Encoder_Start_DMA), (272 bytes).
    Removing stm32f4xx_hal_tim.o(i.HAL_TIM_Encoder_Start_IT), (92 bytes).
    Removing stm32f4xx_hal_tim.o(i.HAL_TIM_Encoder_Stop), (70 bytes).
    Removing stm32f4xx_hal_tim.o(i.HAL_TIM_Encoder_Stop_DMA), (116 bytes).
    Removing stm32f4xx_hal_tim.o(i.HAL_TIM_Encoder_Stop_IT), (116 bytes).
    Removing stm32f4xx_hal_tim.o(i.HAL_TIM_ErrorCallback), (2 bytes).
    Removing stm32f4xx_hal_tim.o(i.HAL_TIM_GenerateEvent), (38 bytes).
    Removing stm32f4xx_hal_tim.o(i.HAL_TIM_IC_ConfigChannel), (286 bytes).
    Removing stm32f4xx_hal_tim.o(i.HAL_TIM_IC_DeInit), (56 bytes).
    Removing stm32f4xx_hal_tim.o(i.HAL_TIM_IC_GetState), (6 bytes).
    Removing stm32f4xx_hal_tim.o(i.HAL_TIM_IC_Init), (54 bytes).
    Removing stm32f4xx_hal_tim.o(i.HAL_TIM_IC_MspDeInit), (2 bytes).
    Removing stm32f4xx_hal_tim.o(i.HAL_TIM_IC_MspInit), (2 bytes).
    Removing stm32f4xx_hal_tim.o(i.HAL_TIM_IC_Start), (26 bytes).
    Removing stm32f4xx_hal_tim.o(i.HAL_TIM_IC_Start_DMA), (200 bytes).
    Removing stm32f4xx_hal_tim.o(i.HAL_TIM_IC_Start_IT), (76 bytes).
    Removing stm32f4xx_hal_tim.o(i.HAL_TIM_IC_Stop), (44 bytes).
    Removing stm32f4xx_hal_tim.o(i.HAL_TIM_IC_Stop_DMA), (100 bytes).
    Removing stm32f4xx_hal_tim.o(i.HAL_TIM_IC_Stop_IT), (94 bytes).
    Removing stm32f4xx_hal_tim.o(i.HAL_TIM_OC_ConfigChannel), (86 bytes).
    Removing stm32f4xx_hal_tim.o(i.HAL_TIM_OC_DeInit), (56 bytes).
    Removing stm32f4xx_hal_tim.o(i.HAL_TIM_OC_GetState), (6 bytes).
    Removing stm32f4xx_hal_tim.o(i.HAL_TIM_OC_Init), (54 bytes).
    Removing stm32f4xx_hal_tim.o(i.HAL_TIM_OC_MspDeInit), (2 bytes).
    Removing stm32f4xx_hal_tim.o(i.HAL_TIM_OC_MspInit), (2 bytes).
    Removing stm32f4xx_hal_tim.o(i.HAL_TIM_OC_Start), (56 bytes).
    Removing stm32f4xx_hal_tim.o(i.HAL_TIM_OC_Start_DMA), (240 bytes).
    Removing stm32f4xx_hal_tim.o(i.HAL_TIM_OC_Start_IT), (108 bytes).
    Removing stm32f4xx_hal_tim.o(i.HAL_TIM_OC_Stop), (88 bytes).
    Removing stm32f4xx_hal_tim.o(i.HAL_TIM_OC_Stop_DMA), (144 bytes).
    Removing stm32f4xx_hal_tim.o(i.HAL_TIM_OC_Stop_IT), (136 bytes).
    Removing stm32f4xx_hal_tim.o(i.HAL_TIM_OnePulse_ConfigChannel), (218 bytes).
    Removing stm32f4xx_hal_tim.o(i.HAL_TIM_OnePulse_DeInit), (56 bytes).
    Removing stm32f4xx_hal_tim.o(i.HAL_TIM_OnePulse_GetState), (6 bytes).
    Removing stm32f4xx_hal_tim.o(i.HAL_TIM_OnePulse_Init), (74 bytes).
    Removing stm32f4xx_hal_tim.o(i.HAL_TIM_OnePulse_MspDeInit), (2 bytes).
    Removing stm32f4xx_hal_tim.o(i.HAL_TIM_OnePulse_MspInit), (2 bytes).
    Removing stm32f4xx_hal_tim.o(i.HAL_TIM_OnePulse_Start), (60 bytes).
    Removing stm32f4xx_hal_tim.o(i.HAL_TIM_OnePulse_Start_IT), (80 bytes).
    Removing stm32f4xx_hal_tim.o(i.HAL_TIM_OnePulse_Stop), (100 bytes).
    Removing stm32f4xx_hal_tim.o(i.HAL_TIM_OnePulse_Stop_IT), (120 bytes).
    Removing stm32f4xx_hal_tim.o(i.HAL_TIM_PWM_ConfigChannel), (208 bytes).
    Removing stm32f4xx_hal_tim.o(i.HAL_TIM_PWM_DeInit), (56 bytes).
    Removing stm32f4xx_hal_tim.o(i.HAL_TIM_PWM_GetState), (6 bytes).
    Removing stm32f4xx_hal_tim.o(i.HAL_TIM_PWM_Init), (54 bytes).
    Removing stm32f4xx_hal_tim.o(i.HAL_TIM_PWM_MspDeInit), (2 bytes).
    Removing stm32f4xx_hal_tim.o(i.HAL_TIM_PWM_MspInit), (2 bytes).
    Removing stm32f4xx_hal_tim.o(i.HAL_TIM_PWM_Start), (56 bytes).
    Removing stm32f4xx_hal_tim.o(i.HAL_TIM_PWM_Start_DMA), (240 bytes).
    Removing stm32f4xx_hal_tim.o(i.HAL_TIM_PWM_Start_IT), (108 bytes).
    Removing stm32f4xx_hal_tim.o(i.HAL_TIM_PWM_Stop), (92 bytes).
    Removing stm32f4xx_hal_tim.o(i.HAL_TIM_PWM_Stop_DMA), (144 bytes).
    Removing stm32f4xx_hal_tim.o(i.HAL_TIM_PWM_Stop_IT), (136 bytes).
    Removing stm32f4xx_hal_tim.o(i.HAL_TIM_ReadCapturedValue), (68 bytes).
    Removing stm32f4xx_hal_tim.o(i.HAL_TIM_SlaveConfigSynchronization), (66 bytes).
    Removing stm32f4xx_hal_tim.o(i.HAL_TIM_SlaveConfigSynchronization_IT), (66 bytes).
    Removing stm32f4xx_hal_tim.o(i.TIM_CCxChannelCmd), (22 bytes).
    Removing stm32f4xx_hal_tim.o(i.TIM_DMACaptureCplt), (62 bytes).
    Removing stm32f4xx_hal_tim.o(i.TIM_DMADelayPulseCplt), (62 bytes).
    Removing stm32f4xx_hal_tim.o(i.TIM_DMAError), (16 bytes).
    Removing stm32f4xx_hal_tim.o(i.TIM_DMAPeriodElapsedCplt), (16 bytes).
    Removing stm32f4xx_hal_tim.o(i.TIM_DMATriggerCplt), (16 bytes).
    Removing stm32f4xx_hal_tim.o(i.TIM_OC1_SetConfig), (88 bytes).
    Removing stm32f4xx_hal_tim.o(i.TIM_OC2_SetConfig), (100 bytes).
    Removing stm32f4xx_hal_tim.o(i.TIM_OC3_SetConfig), (96 bytes).
    Removing stm32f4xx_hal_tim.o(i.TIM_OC4_SetConfig), (80 bytes).
    Removing stm32f4xx_hal_tim.o(i.TIM_SlaveTimer_SetConfig), (124 bytes).
    Removing stm32f4xx_hal_tim.o(i.TIM_TI1_SetConfig), (132 bytes).
    Removing stm32f4xx_hal_tim.o(i.TIM_TI2_SetConfig), (54 bytes).
    Removing stm32f4xx_hal_tim_ex.o(.rev16_text), (4 bytes).
    Removing stm32f4xx_hal_tim_ex.o(.revsh_text), (4 bytes).
    Removing stm32f4xx_hal_tim_ex.o(.rrx_text), (6 bytes).
    Removing stm32f4xx_hal_tim_ex.o(i.HAL_TIMEx_ConfigBreakDeadTime), (90 bytes).
    Removing stm32f4xx_hal_tim_ex.o(i.HAL_TIMEx_ConfigCommutationEvent), (92 bytes).
    Removing stm32f4xx_hal_tim_ex.o(i.HAL_TIMEx_ConfigCommutationEvent_DMA), (124 bytes).
    Removing stm32f4xx_hal_tim_ex.o(i.HAL_TIMEx_ConfigCommutationEvent_IT), (102 bytes).
    Removing stm32f4xx_hal_tim_ex.o(i.HAL_TIMEx_HallSensor_DeInit), (56 bytes).
    Removing stm32f4xx_hal_tim_ex.o(i.HAL_TIMEx_HallSensor_GetState), (6 bytes).
    Removing stm32f4xx_hal_tim_ex.o(i.HAL_TIMEx_HallSensor_Init), (176 bytes).
    Removing stm32f4xx_hal_tim_ex.o(i.HAL_TIMEx_HallSensor_MspDeInit), (2 bytes).
    Removing stm32f4xx_hal_tim_ex.o(i.HAL_TIMEx_HallSensor_MspInit), (2 bytes).
    Removing stm32f4xx_hal_tim_ex.o(i.HAL_TIMEx_HallSensor_Start), (28 bytes).
    Removing stm32f4xx_hal_tim_ex.o(i.HAL_TIMEx_HallSensor_Start_DMA), (104 bytes).
    Removing stm32f4xx_hal_tim_ex.o(i.HAL_TIMEx_HallSensor_Start_IT), (38 bytes).
    Removing stm32f4xx_hal_tim_ex.o(i.HAL_TIMEx_HallSensor_Stop), (46 bytes).
    Removing stm32f4xx_hal_tim_ex.o(i.HAL_TIMEx_HallSensor_Stop_DMA), (56 bytes).
    Removing stm32f4xx_hal_tim_ex.o(i.HAL_TIMEx_HallSensor_Stop_IT), (56 bytes).
    Removing stm32f4xx_hal_tim_ex.o(i.HAL_TIMEx_OCN_Start), (36 bytes).
    Removing stm32f4xx_hal_tim_ex.o(i.HAL_TIMEx_OCN_Start_DMA), (220 bytes).
    Removing stm32f4xx_hal_tim_ex.o(i.HAL_TIMEx_OCN_Start_IT), (96 bytes).
    Removing stm32f4xx_hal_tim_ex.o(i.HAL_TIMEx_OCN_Stop), (68 bytes).
    Removing stm32f4xx_hal_tim_ex.o(i.HAL_TIMEx_OCN_Stop_DMA), (124 bytes).
    Removing stm32f4xx_hal_tim_ex.o(i.HAL_TIMEx_OCN_Stop_IT), (134 bytes).
    Removing stm32f4xx_hal_tim_ex.o(i.HAL_TIMEx_OnePulseN_Start), (26 bytes).
    Removing stm32f4xx_hal_tim_ex.o(i.HAL_TIMEx_OnePulseN_Start_IT), (46 bytes).
    Removing stm32f4xx_hal_tim_ex.o(i.HAL_TIMEx_OnePulseN_Stop), (68 bytes).
    Removing stm32f4xx_hal_tim_ex.o(i.HAL_TIMEx_OnePulseN_Stop_IT), (88 bytes).
    Removing stm32f4xx_hal_tim_ex.o(i.HAL_TIMEx_PWMN_Start), (36 bytes).
    Removing stm32f4xx_hal_tim_ex.o(i.HAL_TIMEx_PWMN_Start_DMA), (220 bytes).
    Removing stm32f4xx_hal_tim_ex.o(i.HAL_TIMEx_PWMN_Start_IT), (96 bytes).
    Removing stm32f4xx_hal_tim_ex.o(i.HAL_TIMEx_PWMN_Stop), (68 bytes).
    Removing stm32f4xx_hal_tim_ex.o(i.HAL_TIMEx_PWMN_Stop_DMA), (124 bytes).
    Removing stm32f4xx_hal_tim_ex.o(i.HAL_TIMEx_PWMN_Stop_IT), (134 bytes).
    Removing stm32f4xx_hal_tim_ex.o(i.HAL_TIMEx_RemapConfig), (34 bytes).
    Removing stm32f4xx_hal_tim_ex.o(i.TIMEx_DMACommutationCplt), (16 bytes).
    Removing stm32f4xx_hal_tim_ex.o(i.TIM_CCxNChannelCmd), (22 bytes).
    Removing stm32f4xx_hal.o(.rev16_text), (4 bytes).
    Removing stm32f4xx_hal.o(.revsh_text), (4 bytes).
    Removing stm32f4xx_hal.o(.rrx_text), (6 bytes).
    Removing stm32f4xx_hal.o(i.HAL_DBGMCU_DisableDBGSleepMode), (16 bytes).
    Removing stm32f4xx_hal.o(i.HAL_DBGMCU_DisableDBGStandbyMode), (16 bytes).
    Removing stm32f4xx_hal.o(i.HAL_DBGMCU_DisableDBGStopMode), (16 bytes).
    Removing stm32f4xx_hal.o(i.HAL_DBGMCU_EnableDBGSleepMode), (16 bytes).
    Removing stm32f4xx_hal.o(i.HAL_DBGMCU_EnableDBGStandbyMode), (16 bytes).
    Removing stm32f4xx_hal.o(i.HAL_DBGMCU_EnableDBGStopMode), (16 bytes).
    Removing stm32f4xx_hal.o(i.HAL_DeInit), (52 bytes).
    Removing stm32f4xx_hal.o(i.HAL_Delay), (28 bytes).
    Removing stm32f4xx_hal.o(i.HAL_DisableCompensationCell), (28 bytes).
    Removing stm32f4xx_hal.o(i.HAL_EnableCompensationCell), (28 bytes).
    Removing stm32f4xx_hal.o(i.HAL_GetDEVID), (16 bytes).
    Removing stm32f4xx_hal.o(i.HAL_GetHalVersion), (8 bytes).
    Removing stm32f4xx_hal.o(i.HAL_GetREVID), (12 bytes).
    Removing stm32f4xx_hal.o(i.HAL_GetUID), (28 bytes).
    Removing stm32f4xx_hal.o(i.HAL_MspDeInit), (2 bytes).
    Removing stm32f4xx_hal.o(i.HAL_MspInit), (2 bytes).
    Removing stm32f4xx_hal.o(i.HAL_ResumeTick), (14 bytes).
    Removing stm32f4xx_hal.o(i.HAL_SuspendTick), (14 bytes).
    Removing stm32f4xx_hal_rcc.o(.rev16_text), (4 bytes).
    Removing stm32f4xx_hal_rcc.o(.revsh_text), (4 bytes).
    Removing stm32f4xx_hal_rcc.o(.rrx_text), (6 bytes).
    Removing stm32f4xx_hal_rcc.o(i.HAL_RCC_CSSCallback), (2 bytes).
    Removing stm32f4xx_hal_rcc.o(i.HAL_RCC_DeInit), (2 bytes).
    Removing stm32f4xx_hal_rcc.o(i.HAL_RCC_DisableCSS), (12 bytes).
    Removing stm32f4xx_hal_rcc.o(i.HAL_RCC_EnableCSS), (12 bytes).
    Removing stm32f4xx_hal_rcc.o(i.HAL_RCC_GetClockConfig), (64 bytes).
    Removing stm32f4xx_hal_rcc.o(i.HAL_RCC_GetOscConfig), (232 bytes).
    Removing stm32f4xx_hal_rcc.o(i.HAL_RCC_GetPCLK2Freq), (48 bytes).
    Removing stm32f4xx_hal_rcc.o(i.HAL_RCC_MCOConfig), (140 bytes).
    Removing stm32f4xx_hal_rcc.o(i.HAL_RCC_NMI_IRQHandler), (28 bytes).
    Removing stm32f4xx_hal_flash_ex.o(.rev16_text), (4 bytes).
    Removing stm32f4xx_hal_flash_ex.o(.revsh_text), (4 bytes).
    Removing stm32f4xx_hal_flash_ex.o(.rrx_text), (6 bytes).
    Removing stm32f4xx_hal_flash_ex.o(i.FLASH_Erase_Sector), (88 bytes).
    Removing stm32f4xx_hal_flash_ex.o(i.FLASH_FlushCaches), (84 bytes).
    Removing stm32f4xx_hal_flash_ex.o(i.FLASH_MassErase), (40 bytes).
    Removing stm32f4xx_hal_flash_ex.o(i.HAL_FLASHEx_Erase), (152 bytes).
    Removing stm32f4xx_hal_flash_ex.o(i.HAL_FLASHEx_Erase_IT), (104 bytes).
    Removing stm32f4xx_hal_flash_ex.o(i.HAL_FLASHEx_OBGetConfig), (64 bytes).
    Removing stm32f4xx_hal_flash_ex.o(i.HAL_FLASHEx_OBProgram), (204 bytes).
    Removing stm32f4xx_hal_flash_ramfunc.o(.rev16_text), (4 bytes).
    Removing stm32f4xx_hal_flash_ramfunc.o(.revsh_text), (4 bytes).
    Removing stm32f4xx_hal_flash_ramfunc.o(.rrx_text), (6 bytes).
    Removing stm32f4xx_hal_gpio.o(.rev16_text), (4 bytes).
    Removing stm32f4xx_hal_gpio.o(.revsh_text), (4 bytes).
    Removing stm32f4xx_hal_gpio.o(.rrx_text), (6 bytes).
    Removing stm32f4xx_hal_gpio.o(i.HAL_GPIO_LockPin), (34 bytes).
    Removing stm32f4xx_hal_gpio.o(i.HAL_GPIO_TogglePin), (8 bytes).
    Removing stm32f4xx_hal_pwr.o(.rev16_text), (4 bytes).
    Removing stm32f4xx_hal_pwr.o(.revsh_text), (4 bytes).
    Removing stm32f4xx_hal_pwr.o(.rrx_text), (6 bytes).
    Removing stm32f4xx_hal_pwr.o(i.HAL_PWR_ConfigPVD), (124 bytes).
    Removing stm32f4xx_hal_pwr.o(i.HAL_PWR_DeInit), (24 bytes).
    Removing stm32f4xx_hal_pwr.o(i.HAL_PWR_DisableBkUpAccess), (28 bytes).
    Removing stm32f4xx_hal_pwr.o(i.HAL_PWR_DisablePVD), (24 bytes).
    Removing stm32f4xx_hal_pwr.o(i.HAL_PWR_DisableSEVOnPend), (16 bytes).
    Removing stm32f4xx_hal_pwr.o(i.HAL_PWR_DisableSleepOnExit), (16 bytes).
    Removing stm32f4xx_hal_pwr.o(i.HAL_PWR_DisableWakeUpPin), (16 bytes).
    Removing stm32f4xx_hal_pwr.o(i.HAL_PWR_EnableBkUpAccess), (24 bytes).
    Removing stm32f4xx_hal_pwr.o(i.HAL_PWR_EnablePVD), (24 bytes).
    Removing stm32f4xx_hal_pwr.o(i.HAL_PWR_EnableSEVOnPend), (16 bytes).
    Removing stm32f4xx_hal_pwr.o(i.HAL_PWR_EnableSleepOnExit), (16 bytes).
    Removing stm32f4xx_hal_pwr.o(i.HAL_PWR_EnableWakeUpPin), (16 bytes).
    Removing stm32f4xx_hal_pwr.o(i.HAL_PWR_EnterSLEEPMode), (32 bytes).
    Removing stm32f4xx_hal_pwr.o(i.HAL_PWR_EnterSTANDBYMode), (32 bytes).
    Removing stm32f4xx_hal_pwr.o(i.HAL_PWR_EnterSTOPMode), (56 bytes).
    Removing stm32f4xx_hal_pwr.o(i.HAL_PWR_PVDCallback), (2 bytes).
    Removing stm32f4xx_hal_pwr.o(i.HAL_PWR_PVD_IRQHandler), (28 bytes).
    Removing stm32f4xx_hal_cortex.o(.rev16_text), (4 bytes).
    Removing stm32f4xx_hal_cortex.o(.revsh_text), (4 bytes).
    Removing stm32f4xx_hal_cortex.o(.rrx_text), (6 bytes).
    Removing stm32f4xx_hal_cortex.o(i.HAL_MPU_ConfigRegion), (84 bytes).
    Removing stm32f4xx_hal_cortex.o(i.HAL_MPU_Disable), (28 bytes).
    Removing stm32f4xx_hal_cortex.o(i.HAL_MPU_Enable), (36 bytes).
    Removing stm32f4xx_hal_cortex.o(i.HAL_NVIC_ClearPendingIRQ), (22 bytes).
    Removing stm32f4xx_hal_cortex.o(i.HAL_NVIC_DisableIRQ), (22 bytes).
    Removing stm32f4xx_hal_cortex.o(i.HAL_NVIC_GetActive), (32 bytes).
    Removing stm32f4xx_hal_cortex.o(i.HAL_NVIC_GetPendingIRQ), (32 bytes).
    Removing stm32f4xx_hal_cortex.o(i.HAL_NVIC_GetPriority), (82 bytes).
    Removing stm32f4xx_hal_cortex.o(i.HAL_NVIC_GetPriorityGrouping), (16 bytes).
    Removing stm32f4xx_hal_cortex.o(i.HAL_NVIC_SetPendingIRQ), (22 bytes).
    Removing stm32f4xx_hal_cortex.o(i.HAL_NVIC_SystemReset), (36 bytes).
    Removing stm32f4xx_hal_rcc_ex.o(.rev16_text), (4 bytes).
    Removing stm32f4xx_hal_rcc_ex.o(.revsh_text), (4 bytes).
    Removing stm32f4xx_hal_rcc_ex.o(.rrx_text), (6 bytes).
    Removing stm32f4xx_hal_rcc_ex.o(i.HAL_RCCEx_GetPeriphCLKConfig), (80 bytes).
    Removing stm32f4xx_hal_rcc_ex.o(i.HAL_RCCEx_GetPeriphCLKFreq), (92 bytes).
    Removing stm32f4xx_hal_rcc_ex.o(i.HAL_RCCEx_PeriphCLKConfig), (340 bytes).
    Removing stm32f4xx_hal_rcc_ex.o(i.HAL_RCC_DeInit), (92 bytes).
    Removing stm32f4xx_hal_flash.o(.rev16_text), (4 bytes).
    Removing stm32f4xx_hal_flash.o(.revsh_text), (4 bytes).
    Removing stm32f4xx_hal_flash.o(.rrx_text), (6 bytes).
    Removing stm32f4xx_hal_flash.o(i.FLASH_Program_Byte), (32 bytes).
    Removing stm32f4xx_hal_flash.o(i.FLASH_Program_DoubleWord), (40 bytes).
    Removing stm32f4xx_hal_flash.o(i.FLASH_Program_HalfWord), (36 bytes).
    Removing stm32f4xx_hal_flash.o(i.FLASH_Program_Word), (36 bytes).
    Removing stm32f4xx_hal_flash.o(i.FLASH_SetErrorCode), (104 bytes).
    Removing stm32f4xx_hal_flash.o(i.FLASH_WaitForLastOperation), (80 bytes).
    Removing stm32f4xx_hal_flash.o(i.HAL_FLASH_EndOfOperationCallback), (2 bytes).
    Removing stm32f4xx_hal_flash.o(i.HAL_FLASH_GetError), (12 bytes).
    Removing stm32f4xx_hal_flash.o(i.HAL_FLASH_IRQHandler), (204 bytes).
    Removing stm32f4xx_hal_flash.o(i.HAL_FLASH_Lock), (20 bytes).
    Removing stm32f4xx_hal_flash.o(i.HAL_FLASH_OB_Launch), (24 bytes).
    Removing stm32f4xx_hal_flash.o(i.HAL_FLASH_OB_Lock), (20 bytes).
    Removing stm32f4xx_hal_flash.o(i.HAL_FLASH_OB_Unlock), (40 bytes).
    Removing stm32f4xx_hal_flash.o(i.HAL_FLASH_OperationErrorCallback), (2 bytes).
    Removing stm32f4xx_hal_flash.o(i.HAL_FLASH_Program), (124 bytes).
    Removing stm32f4xx_hal_flash.o(i.HAL_FLASH_Program_IT), (108 bytes).
    Removing stm32f4xx_hal_flash.o(i.HAL_FLASH_Unlock), (40 bytes).
    Removing stm32f4xx_hal_flash.o(.bss), (32 bytes).
    Removing stm32f4xx_hal_spi.o(.rev16_text), (4 bytes).
    Removing stm32f4xx_hal_spi.o(.revsh_text), (4 bytes).
    Removing stm32f4xx_hal_spi.o(.rrx_text), (6 bytes).
    Removing stm32f4xx_hal_spi.o(i.HAL_SPI_Abort), (192 bytes).
    Removing stm32f4xx_hal_spi.o(i.HAL_SPI_AbortCpltCallback), (2 bytes).
    Removing stm32f4xx_hal_spi.o(i.HAL_SPI_Abort_IT), (232 bytes).
    Removing stm32f4xx_hal_spi.o(i.HAL_SPI_DMAPause), (38 bytes).
    Removing stm32f4xx_hal_spi.o(i.HAL_SPI_DMAResume), (38 bytes).
    Removing stm32f4xx_hal_spi.o(i.HAL_SPI_DMAStop), (40 bytes).
    Removing stm32f4xx_hal_spi.o(i.HAL_SPI_GetError), (4 bytes).
    Removing stm32f4xx_hal_spi.o(i.HAL_SPI_GetState), (6 bytes).
    Removing stm32f4xx_hal_spi.o(i.HAL_SPI_IRQHandler), (212 bytes).
    Removing stm32f4xx_hal_spi.o(i.HAL_SPI_MspDeInit), (2 bytes).
    Removing stm32f4xx_hal_spi.o(i.HAL_SPI_MspInit), (2 bytes).
    Removing stm32f4xx_hal_spi.o(i.HAL_SPI_Receive), (336 bytes).
    Removing stm32f4xx_hal_spi.o(i.HAL_SPI_Receive_DMA), (212 bytes).
    Removing stm32f4xx_hal_spi.o(i.HAL_SPI_Receive_IT), (164 bytes).
    Removing stm32f4xx_hal_spi.o(i.HAL_SPI_Transmit), (360 bytes).
    Removing stm32f4xx_hal_spi.o(i.HAL_SPI_TransmitReceive), (472 bytes).
    Removing stm32f4xx_hal_spi.o(i.HAL_SPI_TransmitReceive_IT), (164 bytes).
    Removing stm32f4xx_hal_spi.o(i.HAL_SPI_Transmit_DMA), (184 bytes).
    Removing stm32f4xx_hal_spi.o(i.HAL_SPI_Transmit_IT), (152 bytes).
    Removing stm32f4xx_hal_spi.o(i.HAL_SPI_TxCpltCallback), (2 bytes).
    Removing stm32f4xx_hal_spi.o(i.HAL_SPI_TxHalfCpltCallback), (2 bytes).
    Removing stm32f4xx_hal_spi.o(i.SPI_2linesRxISR_16BIT), (48 bytes).
    Removing stm32f4xx_hal_spi.o(i.SPI_2linesRxISR_8BIT), (46 bytes).
    Removing stm32f4xx_hal_spi.o(i.SPI_2linesTxISR_16BIT), (48 bytes).
    Removing stm32f4xx_hal_spi.o(i.SPI_2linesTxISR_8BIT), (46 bytes).
    Removing stm32f4xx_hal_spi.o(i.SPI_AbortRx_ISR), (80 bytes).
    Removing stm32f4xx_hal_spi.o(i.SPI_AbortTx_ISR), (22 bytes).
    Removing stm32f4xx_hal_spi.o(i.SPI_CloseRxTx_ISR), (144 bytes).
    Removing stm32f4xx_hal_spi.o(i.SPI_CloseRx_ISR), (78 bytes).
    Removing stm32f4xx_hal_spi.o(i.SPI_CloseTx_ISR), (124 bytes).
    Removing stm32f4xx_hal_spi.o(i.SPI_DMAAbortOnError), (16 bytes).
    Removing stm32f4xx_hal_spi.o(i.SPI_DMAHalfTransmitCplt), (10 bytes).
    Removing stm32f4xx_hal_spi.o(i.SPI_DMARxAbortCallback), (70 bytes).
    Removing stm32f4xx_hal_spi.o(i.SPI_DMATransmitCplt), (90 bytes).
    Removing stm32f4xx_hal_spi.o(i.SPI_DMATxAbortCallback), (104 bytes).
    Removing stm32f4xx_hal_spi.o(i.SPI_RxISR_16BIT), (32 bytes).
    Removing stm32f4xx_hal_spi.o(i.SPI_RxISR_8BIT), (30 bytes).
    Removing stm32f4xx_hal_spi.o(i.SPI_TxISR_16BIT), (32 bytes).
    Removing stm32f4xx_hal_spi.o(i.SPI_TxISR_8BIT), (30 bytes).
    Removing stm32f4xx_hal_dma_ex.o(.rev16_text), (4 bytes).
    Removing stm32f4xx_hal_dma_ex.o(.revsh_text), (4 bytes).
    Removing stm32f4xx_hal_dma_ex.o(.rrx_text), (6 bytes).
    Removing stm32f4xx_hal_dma_ex.o(i.DMA_MultiBufferSetConfig), (30 bytes).
    Removing stm32f4xx_hal_dma_ex.o(i.HAL_DMAEx_ChangeMemory), (14 bytes).
    Removing stm32f4xx_hal_dma_ex.o(i.HAL_DMAEx_MultiBufferStart), (100 bytes).
    Removing stm32f4xx_hal_dma_ex.o(i.HAL_DMAEx_MultiBufferStart_IT), (2452 bytes).
    Removing stm32f4xx_hal_pwr_ex.o(.rev16_text), (4 bytes).
    Removing stm32f4xx_hal_pwr_ex.o(.revsh_text), (4 bytes).
    Removing stm32f4xx_hal_pwr_ex.o(.rrx_text), (6 bytes).
    Removing stm32f4xx_hal_pwr_ex.o(i.HAL_PWREx_ControlVoltageScaling), (88 bytes).
    Removing stm32f4xx_hal_pwr_ex.o(i.HAL_PWREx_DisableBkUpReg), (76 bytes).
    Removing stm32f4xx_hal_pwr_ex.o(i.HAL_PWREx_DisableFlashPowerDown), (28 bytes).
    Removing stm32f4xx_hal_pwr_ex.o(i.HAL_PWREx_EnableBkUpReg), (76 bytes).
    Removing stm32f4xx_hal_pwr_ex.o(i.HAL_PWREx_EnableFlashPowerDown), (24 bytes).
    Removing stm32f4xx_hal_pwr_ex.o(i.HAL_PWREx_GetVoltageRange), (16 bytes).
    Removing stm32f4xx_hal_i2c.o(.rev16_text), (4 bytes).
    Removing stm32f4xx_hal_i2c.o(.revsh_text), (4 bytes).
    Removing stm32f4xx_hal_i2c.o(.rrx_text), (6 bytes).
    Removing stm32f4xx_hal_i2c.o(i.HAL_I2C_AbortCpltCallback), (2 bytes).
    Removing stm32f4xx_hal_i2c.o(i.HAL_I2C_AddrCallback), (2 bytes).
    Removing stm32f4xx_hal_i2c.o(i.HAL_I2C_DeInit), (50 bytes).
    Removing stm32f4xx_hal_i2c.o(i.HAL_I2C_DisableListen_IT), (68 bytes).
    Removing stm32f4xx_hal_i2c.o(i.HAL_I2C_ER_IRQHandler), (196 bytes).
    Removing stm32f4xx_hal_i2c.o(i.HAL_I2C_EV_IRQHandler), (496 bytes).
    Removing stm32f4xx_hal_i2c.o(i.HAL_I2C_EnableListen_IT), (58 bytes).
    Removing stm32f4xx_hal_i2c.o(i.HAL_I2C_ErrorCallback), (2 bytes).
    Removing stm32f4xx_hal_i2c.o(i.HAL_I2C_GetMode), (6 bytes).
    Removing stm32f4xx_hal_i2c.o(i.HAL_I2C_GetState), (6 bytes).
    Removing stm32f4xx_hal_i2c.o(i.HAL_I2C_IsDeviceReady), (352 bytes).
    Removing stm32f4xx_hal_i2c.o(i.HAL_I2C_ListenCpltCallback), (2 bytes).
    Removing stm32f4xx_hal_i2c.o(i.HAL_I2C_MasterRxCpltCallback), (2 bytes).
    Removing stm32f4xx_hal_i2c.o(i.HAL_I2C_MasterTxCpltCallback), (2 bytes).
    Removing stm32f4xx_hal_i2c.o(i.HAL_I2C_Master_Abort_IT), (86 bytes).
    Removing stm32f4xx_hal_i2c.o(i.HAL_I2C_Master_Receive), (488 bytes).
    Removing stm32f4xx_hal_i2c.o(i.HAL_I2C_Master_Receive_DMA), (296 bytes).
    Removing stm32f4xx_hal_i2c.o(i.HAL_I2C_Master_Receive_IT), (188 bytes).
    Removing stm32f4xx_hal_i2c.o(i.HAL_I2C_Master_Sequential_Receive_IT), (224 bytes).
    Removing stm32f4xx_hal_i2c.o(i.HAL_I2C_Master_Sequential_Transmit_IT), (192 bytes).
    Removing stm32f4xx_hal_i2c.o(i.HAL_I2C_Master_Transmit), (312 bytes).
    Removing stm32f4xx_hal_i2c.o(i.HAL_I2C_Master_Transmit_DMA), (296 bytes).
    Removing stm32f4xx_hal_i2c.o(i.HAL_I2C_Master_Transmit_IT), (180 bytes).
    Removing stm32f4xx_hal_i2c.o(i.HAL_I2C_MemRxCpltCallback), (2 bytes).
    Removing stm32f4xx_hal_i2c.o(i.HAL_I2C_MemTxCpltCallback), (2 bytes).
    Removing stm32f4xx_hal_i2c.o(i.HAL_I2C_Mem_Read_DMA), (376 bytes).
    Removing stm32f4xx_hal_i2c.o(i.HAL_I2C_Mem_Read_IT), (216 bytes).
    Removing stm32f4xx_hal_i2c.o(i.HAL_I2C_Mem_Write_DMA), (292 bytes).
    Removing stm32f4xx_hal_i2c.o(i.HAL_I2C_Mem_Write_IT), (204 bytes).
    Removing stm32f4xx_hal_i2c.o(i.HAL_I2C_MspDeInit), (2 bytes).
    Removing stm32f4xx_hal_i2c.o(i.HAL_I2C_MspInit), (2 bytes).
    Removing stm32f4xx_hal_i2c.o(i.HAL_I2C_SlaveRxCpltCallback), (2 bytes).
    Removing stm32f4xx_hal_i2c.o(i.HAL_I2C_SlaveTxCpltCallback), (2 bytes).
    Removing stm32f4xx_hal_i2c.o(i.HAL_I2C_Slave_Receive), (380 bytes).
    Removing stm32f4xx_hal_i2c.o(i.HAL_I2C_Slave_Receive_DMA), (244 bytes).
    Removing stm32f4xx_hal_i2c.o(i.HAL_I2C_Slave_Receive_IT), (180 bytes).
    Removing stm32f4xx_hal_i2c.o(i.HAL_I2C_Slave_Sequential_Receive_IT), (114 bytes).
    Removing stm32f4xx_hal_i2c.o(i.HAL_I2C_Slave_Sequential_Transmit_IT), (114 bytes).
    Removing stm32f4xx_hal_i2c.o(i.HAL_I2C_Slave_Transmit), (356 bytes).
    Removing stm32f4xx_hal_i2c.o(i.HAL_I2C_Slave_Transmit_DMA), (244 bytes).
    Removing stm32f4xx_hal_i2c.o(i.HAL_I2C_Slave_Transmit_IT), (184 bytes).
    Removing stm32f4xx_hal_i2c.o(i.I2C_DMAAbort), (78 bytes).
    Removing stm32f4xx_hal_i2c.o(i.I2C_DMAError), (52 bytes).
    Removing stm32f4xx_hal_i2c.o(i.I2C_DMAXferCplt), (134 bytes).
    Removing stm32f4xx_hal_i2c.o(i.I2C_ITError), (292 bytes).
    Removing stm32f4xx_hal_i2c.o(i.I2C_MasterReceive_BTF), (200 bytes).
    Removing stm32f4xx_hal_i2c.o(i.I2C_MasterReceive_RXNE), (168 bytes).
    Removing stm32f4xx_hal_i2c.o(i.I2C_MasterRequestRead), (222 bytes).
    Removing stm32f4xx_hal_i2c.o(i.I2C_MasterRequestWrite), (148 bytes).
    Removing stm32f4xx_hal_i2c.o(i.I2C_MasterTransmit_BTF), (128 bytes).
    Removing stm32f4xx_hal_i2c.o(i.I2C_MasterTransmit_TXE), (264 bytes).
    Removing stm32f4xx_hal_i2c.o(i.I2C_Master_ADDR), (244 bytes).
    Removing stm32f4xx_hal_i2c.o(i.I2C_Master_SB), (90 bytes).
    Removing stm32f4xx_hal_i2c.o(i.I2C_Slave_AF), (132 bytes).
    Removing stm32f4xx_hal_i2c.o(i.I2C_Slave_STOPF), (220 bytes).
    Removing stm32f4xx_hal_i2c_ex.o(.rev16_text), (4 bytes).
    Removing stm32f4xx_hal_i2c_ex.o(.revsh_text), (4 bytes).
    Removing stm32f4xx_hal_i2c_ex.o(.rrx_text), (6 bytes).
    Removing stm32f4xx_hal_dma.o(.rev16_text), (4 bytes).
    Removing stm32f4xx_hal_dma.o(.revsh_text), (4 bytes).
    Removing stm32f4xx_hal_dma.o(.rrx_text), (6 bytes).
    Removing stm32f4xx_hal_dma.o(i.HAL_DMA_Abort), (142 bytes).
    Removing stm32f4xx_hal_dma.o(i.HAL_DMA_Abort_IT), (36 bytes).
    Removing stm32f4xx_hal_dma.o(i.HAL_DMA_GetError), (4 bytes).
    Removing stm32f4xx_hal_dma.o(i.HAL_DMA_GetState), (6 bytes).
    Removing stm32f4xx_hal_dma.o(i.HAL_DMA_PollForTransfer), (300 bytes).
    Removing stm32f4xx_hal_dma.o(i.HAL_DMA_RegisterCallback), (80 bytes).
    Removing stm32f4xx_hal_dma.o(i.HAL_DMA_Start), (70 bytes).
    Removing stm32f4xx_hal_dma.o(i.HAL_DMA_UnRegisterCallback), (96 bytes).
    Removing system_stm32f4xx.o(.rev16_text), (4 bytes).
    Removing system_stm32f4xx.o(.revsh_text), (4 bytes).
    Removing system_stm32f4xx.o(.rrx_text), (6 bytes).
    Removing system_stm32f4xx.o(i.SystemCoreClockUpdate), (120 bytes).
    Removing startup_stm32f405xx.o(HEAP), (1792 bytes).
    Removing main.o(.rev16_text), (4 bytes).
    Removing main.o(.revsh_text), (4 bytes).
    Removing main.o(.rrx_text), (6 bytes).
    Removing main.o(.bss), (48 bytes).
    Removing main.o(.bss), (48 bytes).
    Removing main.o(.data), (1 bytes).
    Removing main.o(.data), (2 bytes).
    Removing main.o(.data), (2 bytes).
    Removing main.o(.data), (1 bytes).
    Removing main.o(.data), (1 bytes).
    Removing main.o(.data), (1 bytes).
    Removing main.o(.data), (1 bytes).
    Removing main.o(.data), (1 bytes).
    Removing main.o(.data), (1 bytes).
    Removing main.o(.data), (1 bytes).
    Removing main.o(.data), (1 bytes).
    Removing main.o(.data), (1 bytes).
    Removing main.o(.data), (1 bytes).
    Removing main.o(.data), (1 bytes).
    Removing main.o(.data), (1 bytes).
    Removing main.o(.data), (1 bytes).
    Removing main.o(.data), (1 bytes).
    Removing main.o(.data), (1 bytes).
    Removing main.o(.data), (1 bytes).
    Removing main.o(.data), (1 bytes).
    Removing main.o(.data), (1 bytes).
    Removing main.o(.data), (1 bytes).
    Removing main.o(.data), (1 bytes).
    Removing main.o(.data), (1 bytes).
    Removing main.o(.data), (1 bytes).
    Removing main.o(.data), (1 bytes).
    Removing main.o(.data), (1 bytes).
    Removing main.o(.data), (1 bytes).
    Removing main.o(.data), (1 bytes).
    Removing main.o(.data), (2 bytes).
    Removing main.o(.data), (2 bytes).
    Removing main.o(.data), (4 bytes).
    Removing main.o(.data), (4 bytes).
    Removing main.o(.data), (4 bytes).
    Removing main.o(.data), (4 bytes).
    Removing main.o(.data), (2 bytes).
    Removing main.o(.data), (2 bytes).
    Removing main.o(.data), (2 bytes).
    Removing main.o(.data), (4 bytes).
    Removing main.o(.data), (4 bytes).
    Removing main.o(.data), (4 bytes).
    Removing main.o(.data), (4 bytes).
    Removing main.o(.data), (2 bytes).
    Removing main.o(.data), (2 bytes).
    Removing main.o(.data), (2 bytes).
    Removing main.o(.data), (1 bytes).
    Removing main.o(.data), (1 bytes).
    Removing main.o(.data), (1 bytes).
    Removing main.o(.data), (1 bytes).
    Removing main.o(.data), (1 bytes).
    Removing main.o(.data), (1 bytes).
    Removing main.o(.data), (1 bytes).
    Removing main.o(.data), (1 bytes).
    Removing main.o(.data), (1 bytes).
    Removing main.o(.data), (1 bytes).
    Removing main.o(.data), (1 bytes).
    Removing main.o(.data), (1 bytes).
    Removing main.o(.data), (4 bytes).
    Removing main.o(.data), (4 bytes).
    Removing main.o(.data), (2 bytes).
    Removing main.o(.data), (2 bytes).
    Removing main.o(.data), (4 bytes).
    Removing main.o(.data), (4 bytes).
    Removing main.o(.data), (2 bytes).
    Removing main.o(.data), (2 bytes).
    Removing main.o(.data), (2 bytes).
    Removing main.o(.data), (2 bytes).
    Removing main.o(.data), (4 bytes).
    Removing main.o(.data), (4 bytes).
    Removing main.o(.data), (4 bytes).
    Removing stm32f4xx_hal_msp.o(.rev16_text), (4 bytes).
    Removing stm32f4xx_hal_msp.o(.revsh_text), (4 bytes).
    Removing stm32f4xx_hal_msp.o(.rrx_text), (6 bytes).
    Removing stm32f4xx_hal_msp.o(i.HAL_CAN_MspDeInit), (60 bytes).
    Removing stm32f4xx_hal_msp.o(i.HAL_I2C_MspDeInit), (44 bytes).
    Removing stm32f4xx_hal_msp.o(i.HAL_TIM_Base_MspDeInit), (96 bytes).
    Removing stm32f4xx_hal_msp.o(i.edelay_us), (10 bytes).
    Removing stm32f4xx_it.o(.rev16_text), (4 bytes).
    Removing stm32f4xx_it.o(.revsh_text), (4 bytes).
    Removing stm32f4xx_it.o(.rrx_text), (6 bytes).
    Removing stm32f4xx_it.o(i.Sm_FanMianCanShu), (104 bytes).
    Removing stm32f4xx_it.o(i.Sm_FanMian_GaoSu), (72 bytes).
    Removing stm32f4xx_it.o(i.delay_us), (10 bytes).
    Removing stm32f4xx_it.o(.data), (2 bytes).
    Removing stm32f4xx_it.o(.data), (1 bytes).
    Removing moshicanshu.o(.rev16_text), (4 bytes).
    Removing moshicanshu.o(.revsh_text), (4 bytes).
    Removing moshicanshu.o(.rrx_text), (6 bytes).
    Removing moshicanshu.o(i.clr_f16), (44 bytes).
    Removing moshicanshu.o(i.jsfwbuchang), (44 bytes).
    Removing moshicanshu.o(.constdata), (17 bytes).
    Removing moshicanshu.o(.constdata), (9 bytes).
    Removing moshicanshu.o(.constdata), (9 bytes).
    Removing moshicanshu.o(.constdata), (17 bytes).
    Removing moshicanshu.o(.constdata), (9 bytes).
    Removing moshicanshu.o(.constdata), (9 bytes).
    Removing moshicanshu.o(.constdata), (5 bytes).
    Removing moshicanshu.o(.constdata), (5 bytes).
    Removing moshicanshu.o(.constdata), (5 bytes).
    Removing moshicanshu.o(.constdata), (5 bytes).
    Removing moshicanshu.o(.constdata), (5 bytes).
    Removing moshicanshu.o(.constdata), (5 bytes).
    Removing moshicanshu.o(.constdata), (5 bytes).
    Removing moshicanshu.o(.constdata), (5 bytes).
    Removing moshicanshu.o(.constdata), (5 bytes).
    Removing moshicanshu.o(.constdata), (5 bytes).
    Removing moshicanshu.o(.constdata), (5 bytes).
    Removing moshicanshu.o(.constdata), (5 bytes).
    Removing moshicanshu.o(.constdata), (5 bytes).
    Removing moshicanshu.o(.constdata), (5 bytes).
    Removing moshicanshu.o(.constdata), (5 bytes).
    Removing moshicanshu.o(.constdata), (5 bytes).
    Removing moshicanshu.o(.constdata), (5 bytes).
    Removing moshicanshu.o(.constdata), (5 bytes).
    Removing moshicanshu.o(.constdata), (6 bytes).
    Removing moshicanshu.o(.constdata), (5 bytes).
    Removing moshicanshu.o(.constdata), (6 bytes).
    Removing moshicanshu.o(.constdata), (5 bytes).
    Removing moshicanshu.o(.constdata), (5 bytes).
    Removing moshicanshu.o(.constdata), (6 bytes).
    Removing moshicanshu.o(.constdata), (6 bytes).
    Removing moshicanshu.o(.constdata), (5 bytes).
    Removing moshicanshu.o(.constdata), (6 bytes).
    Removing moshicanshu.o(.constdata), (5 bytes).
    Removing moshicanshu.o(.constdata), (5 bytes).
    Removing moshicanshu.o(.constdata), (5 bytes).
    Removing moshicanshu.o(.constdata), (5 bytes).
    Removing moshicanshu.o(.constdata), (6 bytes).
    Removing moshicanshu.o(.constdata), (5 bytes).
    Removing moshicanshu.o(.constdata), (5 bytes).
    Removing moshicanshu.o(.constdata), (5 bytes).
    Removing moshicanshu.o(.constdata), (5 bytes).
    Removing moshicanshu.o(.constdata), (5 bytes).
    Removing moshicanshu.o(.constdata), (6 bytes).
    Removing moshicanshu.o(.constdata), (6 bytes).
    Removing moshicanshu.o(.constdata), (6 bytes).
    Removing moshicanshu.o(.constdata), (6 bytes).
    Removing moshicanshu.o(.constdata), (6 bytes).
    Removing moshicanshu.o(.constdata), (6 bytes).
    Removing moshicanshu.o(.constdata), (5 bytes).
    Removing moshicanshu.o(.constdata), (5 bytes).
    Removing moshicanshu.o(.constdata), (5 bytes).
    Removing moshicanshu.o(.constdata), (5 bytes).
    Removing moshicanshu.o(.constdata), (6 bytes).
    Removing moshicanshu.o(.constdata), (5 bytes).
    Removing moshicanshu.o(.constdata), (5 bytes).
    Removing moshicanshu.o(.constdata), (6 bytes).
    Removing moshicanshu.o(.constdata), (6 bytes).
    Removing moshicanshu.o(.constdata), (6 bytes).
    Removing moshicanshu.o(.constdata), (6 bytes).
    Removing moshicanshu.o(.constdata), (6 bytes).
    Removing moshicanshu.o(.constdata), (5 bytes).
    Removing moshicanshu.o(.constdata), (5 bytes).
    Removing moshicanshu.o(.constdata), (5 bytes).
    Removing moshicanshu.o(.constdata), (5 bytes).
    Removing moshicanshu.o(.constdata), (5 bytes).
    Removing moshicanshu.o(.constdata), (5 bytes).
    Removing moshicanshu.o(.constdata), (5 bytes).
    Removing moshicanshu.o(.constdata), (5 bytes).
    Removing moshicanshu.o(.constdata), (5 bytes).
    Removing moshicanshu.o(.constdata), (9 bytes).
    Removing moshicanshu.o(.constdata), (9 bytes).
    Removing moshicanshu.o(.constdata), (9 bytes).
    Removing moshicanshu.o(.constdata), (9 bytes).
    Removing moshicanshu.o(.constdata), (9 bytes).
    Removing moshicanshu.o(.constdata), (9 bytes).
    Removing moshicanshu.o(.constdata), (9 bytes).
    Removing moshicanshu.o(.constdata), (9 bytes).
    Removing moshicanshu.o(.constdata), (9 bytes).
    Removing moshicanshu.o(.constdata), (9 bytes).
    Removing moshicanshu.o(.constdata), (9 bytes).
    Removing moshicanshu.o(.constdata), (9 bytes).
    Removing moshicanshu.o(.constdata), (9 bytes).
    Removing moshicanshu.o(.constdata), (9 bytes).
    Removing moshicanshu.o(.constdata), (9 bytes).
    Removing moshicanshu.o(.constdata), (9 bytes).
    Removing moshicanshu.o(.constdata), (9 bytes).
    Removing moshicanshu.o(.constdata), (9 bytes).
    Removing moshicanshu.o(.constdata), (9 bytes).
    Removing moshicanshu.o(.constdata), (9 bytes).
    Removing moshicanshu.o(.constdata), (9 bytes).
    Removing moshicanshu.o(.constdata), (9 bytes).
    Removing moshicanshu.o(.constdata), (9 bytes).
    Removing moshicanshu.o(.constdata), (9 bytes).
    Removing moshicanshu.o(.constdata), (9 bytes).
    Removing moshicanshu.o(.constdata), (9 bytes).
    Removing moshicanshu.o(.constdata), (9 bytes).
    Removing moshicanshu.o(.constdata), (9 bytes).
    Removing moshicanshu.o(.constdata), (9 bytes).
    Removing moshicanshu.o(.constdata), (9 bytes).
    Removing moshicanshu.o(.constdata), (9 bytes).
    Removing moshicanshu.o(.constdata), (9 bytes).
    Removing moshicanshu.o(.constdata), (3 bytes).
    Removing moshicanshu.o(.constdata), (3 bytes).
    Removing moshicanshu.o(.constdata), (9 bytes).
    Removing moshicanshu.o(.constdata), (9 bytes).
    Removing moshicanshu.o(.constdata), (3 bytes).
    Removing moshicanshu.o(.constdata), (3 bytes).
    Removing moshicanshu.o(.constdata), (3 bytes).
    Removing moshicanshu.o(.constdata), (9 bytes).
    Removing moshicanshu.o(.constdata), (9 bytes).
    Removing moshicanshu.o(.constdata), (3 bytes).
    Removing moshicanshu.o(.constdata), (3 bytes).
    Removing moshicanshu.o(.constdata), (3 bytes).
    Removing moshicanshu.o(.constdata), (9 bytes).
    Removing moshicanshu.o(.constdata), (9 bytes).
    Removing moshicanshu.o(.constdata), (3 bytes).
    Removing moshicanshu.o(.constdata), (3 bytes).
    Removing moshicanshu.o(.data), (8 bytes).
    Removing moshicanshu.o(.data), (8 bytes).
    Removing moshicanshu.o(.data), (8 bytes).
    Removing moshicanshu.o(.data), (8 bytes).
    Removing moshicanshu.o(.data), (8 bytes).
    Removing moshicanshu.o(.data), (8 bytes).
    Removing moshicanshu.o(.data), (12 bytes).
    Removing moshicanshu.o(.data), (12 bytes).
    Removing moshicanshu.o(.data), (8 bytes).
    Removing moshicanshu.o(.data), (8 bytes).
    Removing moshicanshu.o(.data), (8 bytes).
    Removing moshicanshu.o(.data), (12 bytes).
    Removing moshicanshu.o(.data), (64 bytes).
    Removing moshicanshu.o(.data), (64 bytes).
    Removing moshicanshu.o(.data), (64 bytes).
    Removing moshicanshu.o(.data), (64 bytes).
    Removing moshicanshu.o(.data), (64 bytes).
    Removing moshicanshu.o(.data), (64 bytes).
    Removing moshicanshu.o(.data), (64 bytes).
    Removing moshicanshu.o(.data), (64 bytes).
    Removing moshicanshu.o(.data), (32 bytes).

624 unused section(s) (total 35632 bytes) removed from the image.

==============================================================================

Image Symbol Table

    Local Symbols

    Symbol Name                              Value     Ov Type        Size  Object(Section)

    ../Drivers/STM32F4xx_HAL_Driver/Src/stm32f4xx_hal.c 0x00000000   Number         0  stm32f4xx_hal.o ABSOLUTE
    ../Drivers/STM32F4xx_HAL_Driver/Src/stm32f4xx_hal_can.c 0x00000000   Number         0  stm32f4xx_hal_can.o ABSOLUTE
    ../Drivers/STM32F4xx_HAL_Driver/Src/stm32f4xx_hal_cortex.c 0x00000000   Number         0  stm32f4xx_hal_cortex.o ABSOLUTE
    ../Drivers/STM32F4xx_HAL_Driver/Src/stm32f4xx_hal_dma.c 0x00000000   Number         0  stm32f4xx_hal_dma.o ABSOLUTE
    ../Drivers/STM32F4xx_HAL_Driver/Src/stm32f4xx_hal_dma_ex.c 0x00000000   Number         0  stm32f4xx_hal_dma_ex.o ABSOLUTE
    ../Drivers/STM32F4xx_HAL_Driver/Src/stm32f4xx_hal_flash.c 0x00000000   Number         0  stm32f4xx_hal_flash.o ABSOLUTE
    ../Drivers/STM32F4xx_HAL_Driver/Src/stm32f4xx_hal_flash_ex.c 0x00000000   Number         0  stm32f4xx_hal_flash_ex.o ABSOLUTE
    ../Drivers/STM32F4xx_HAL_Driver/Src/stm32f4xx_hal_flash_ramfunc.c 0x00000000   Number         0  stm32f4xx_hal_flash_ramfunc.o ABSOLUTE
    ../Drivers/STM32F4xx_HAL_Driver/Src/stm32f4xx_hal_gpio.c 0x00000000   Number         0  stm32f4xx_hal_gpio.o ABSOLUTE
    ../Drivers/STM32F4xx_HAL_Driver/Src/stm32f4xx_hal_i2c.c 0x00000000   Number         0  stm32f4xx_hal_i2c.o ABSOLUTE
    ../Drivers/STM32F4xx_HAL_Driver/Src/stm32f4xx_hal_i2c_ex.c 0x00000000   Number         0  stm32f4xx_hal_i2c_ex.o ABSOLUTE
    ../Drivers/STM32F4xx_HAL_Driver/Src/stm32f4xx_hal_pwr.c 0x00000000   Number         0  stm32f4xx_hal_pwr.o ABSOLUTE
    ../Drivers/STM32F4xx_HAL_Driver/Src/stm32f4xx_hal_pwr_ex.c 0x00000000   Number         0  stm32f4xx_hal_pwr_ex.o ABSOLUTE
    ../Drivers/STM32F4xx_HAL_Driver/Src/stm32f4xx_hal_rcc.c 0x00000000   Number         0  stm32f4xx_hal_rcc.o ABSOLUTE
    ../Drivers/STM32F4xx_HAL_Driver/Src/stm32f4xx_hal_rcc_ex.c 0x00000000   Number         0  stm32f4xx_hal_rcc_ex.o ABSOLUTE
    ../Drivers/STM32F4xx_HAL_Driver/Src/stm32f4xx_hal_spi.c 0x00000000   Number         0  stm32f4xx_hal_spi.o ABSOLUTE
    ../Drivers/STM32F4xx_HAL_Driver/Src/stm32f4xx_hal_tim.c 0x00000000   Number         0  stm32f4xx_hal_tim.o ABSOLUTE
    ../Drivers/STM32F4xx_HAL_Driver/Src/stm32f4xx_hal_tim_ex.c 0x00000000   Number         0  stm32f4xx_hal_tim_ex.o ABSOLUTE
    ../Src/main.c                            0x00000000   Number         0  main.o ABSOLUTE
    ../Src/stm32f4xx_hal_msp.c               0x00000000   Number         0  stm32f4xx_hal_msp.o ABSOLUTE
    ../Src/stm32f4xx_it.c                    0x00000000   Number         0  stm32f4xx_it.o ABSOLUTE
    ../Src/system_stm32f4xx.c                0x00000000   Number         0  system_stm32f4xx.o ABSOLUTE
    ../clib/../cmprslib/zerorunl2.c          0x00000000   Number         0  __dczerorl2.o ABSOLUTE
    ../clib/microlib/init/entry.s            0x00000000   Number         0  entry2.o ABSOLUTE
    ../clib/microlib/init/entry.s            0x00000000   Number         0  entry7b.o ABSOLUTE
    ../clib/microlib/init/entry.s            0x00000000   Number         0  entry8a.o ABSOLUTE
    ../clib/microlib/init/entry.s            0x00000000   Number         0  entry10b.o ABSOLUTE
    ../clib/microlib/init/entry.s            0x00000000   Number         0  entry8b.o ABSOLUTE
    ../clib/microlib/init/entry.s            0x00000000   Number         0  entry9a.o ABSOLUTE
    ../clib/microlib/init/entry.s            0x00000000   Number         0  entry9b.o ABSOLUTE
    ../clib/microlib/init/entry.s            0x00000000   Number         0  entry10a.o ABSOLUTE
    ../clib/microlib/init/entry.s            0x00000000   Number         0  entry11a.o ABSOLUTE
    ../clib/microlib/init/entry.s            0x00000000   Number         0  entry11b.o ABSOLUTE
    ../clib/microlib/init/entry.s            0x00000000   Number         0  entry7a.o ABSOLUTE
    ../clib/microlib/init/entry.s            0x00000000   Number         0  entry.o ABSOLUTE
    ../clib/microlib/init/entry.s            0x00000000   Number         0  entry5.o ABSOLUTE
    ../clib/microlib/longlong.c              0x00000000   Number         0  llushr.o ABSOLUTE
    ../clib/microlib/longlong.c              0x00000000   Number         0  llshl.o ABSOLUTE
    ../clib/microlib/string/memcpy.c         0x00000000   Number         0  memcpya.o ABSOLUTE
    ../clib/microlib/string/memcpy.c         0x00000000   Number         0  memcpyb.o ABSOLUTE
    ../clib/microlib/stubs.s                 0x00000000   Number         0  iusefp.o ABSOLUTE
    ../fplib/microlib/d2f.c                  0x00000000   Number         0  d2f.o ABSOLUTE
    ../fplib/microlib/f2d.c                  0x00000000   Number         0  f2d.o ABSOLUTE
    ../fplib/microlib/fpdiv.c                0x00000000   Number         0  ddiv.o ABSOLUTE
    ../fplib/microlib/fpepilogue.c           0x00000000   Number         0  depilogue.o ABSOLUTE
    ../fplib/microlib/fpepilogue.c           0x00000000   Number         0  fepilogue.o ABSOLUTE
    ../fplib/microlib/fpfix.c                0x00000000   Number         0  dfixui.o ABSOLUTE
    ../fplib/microlib/fpfix.c                0x00000000   Number         0  dfixi.o ABSOLUTE
    ../fplib/microlib/fpflt.c                0x00000000   Number         0  dflti.o ABSOLUTE
    ../fplib/microlib/fpflt.c                0x00000000   Number         0  dfltui.o ABSOLUTE
    ../fplib/microlib/fpmul.c                0x00000000   Number         0  dmul.o ABSOLUTE
    ..\Drivers\STM32F4xx_HAL_Driver\Src\stm32f4xx_hal.c 0x00000000   Number         0  stm32f4xx_hal.o ABSOLUTE
    ..\Drivers\STM32F4xx_HAL_Driver\Src\stm32f4xx_hal_can.c 0x00000000   Number         0  stm32f4xx_hal_can.o ABSOLUTE
    ..\Drivers\STM32F4xx_HAL_Driver\Src\stm32f4xx_hal_cortex.c 0x00000000   Number         0  stm32f4xx_hal_cortex.o ABSOLUTE
    ..\Drivers\STM32F4xx_HAL_Driver\Src\stm32f4xx_hal_dma.c 0x00000000   Number         0  stm32f4xx_hal_dma.o ABSOLUTE
    ..\Drivers\STM32F4xx_HAL_Driver\Src\stm32f4xx_hal_dma_ex.c 0x00000000   Number         0  stm32f4xx_hal_dma_ex.o ABSOLUTE
    ..\Drivers\STM32F4xx_HAL_Driver\Src\stm32f4xx_hal_flash.c 0x00000000   Number         0  stm32f4xx_hal_flash.o ABSOLUTE
    ..\Drivers\STM32F4xx_HAL_Driver\Src\stm32f4xx_hal_flash_ex.c 0x00000000   Number         0  stm32f4xx_hal_flash_ex.o ABSOLUTE
    ..\Drivers\STM32F4xx_HAL_Driver\Src\stm32f4xx_hal_flash_ramfunc.c 0x00000000   Number         0  stm32f4xx_hal_flash_ramfunc.o ABSOLUTE
    ..\Drivers\STM32F4xx_HAL_Driver\Src\stm32f4xx_hal_gpio.c 0x00000000   Number         0  stm32f4xx_hal_gpio.o ABSOLUTE
    ..\Drivers\STM32F4xx_HAL_Driver\Src\stm32f4xx_hal_i2c.c 0x00000000   Number         0  stm32f4xx_hal_i2c.o ABSOLUTE
    ..\Drivers\STM32F4xx_HAL_Driver\Src\stm32f4xx_hal_i2c_ex.c 0x00000000   Number         0  stm32f4xx_hal_i2c_ex.o ABSOLUTE
    ..\Drivers\STM32F4xx_HAL_Driver\Src\stm32f4xx_hal_pwr.c 0x00000000   Number         0  stm32f4xx_hal_pwr.o ABSOLUTE
    ..\Drivers\STM32F4xx_HAL_Driver\Src\stm32f4xx_hal_pwr_ex.c 0x00000000   Number         0  stm32f4xx_hal_pwr_ex.o ABSOLUTE
    ..\Drivers\STM32F4xx_HAL_Driver\Src\stm32f4xx_hal_rcc.c 0x00000000   Number         0  stm32f4xx_hal_rcc.o ABSOLUTE
    ..\Drivers\STM32F4xx_HAL_Driver\Src\stm32f4xx_hal_rcc_ex.c 0x00000000   Number         0  stm32f4xx_hal_rcc_ex.o ABSOLUTE
    ..\Drivers\STM32F4xx_HAL_Driver\Src\stm32f4xx_hal_spi.c 0x00000000   Number         0  stm32f4xx_hal_spi.o ABSOLUTE
    ..\Drivers\STM32F4xx_HAL_Driver\Src\stm32f4xx_hal_tim.c 0x00000000   Number         0  stm32f4xx_hal_tim.o ABSOLUTE
    ..\Drivers\STM32F4xx_HAL_Driver\Src\stm32f4xx_hal_tim_ex.c 0x00000000   Number         0  stm32f4xx_hal_tim_ex.o ABSOLUTE
    ..\Src\main.c                            0x00000000   Number         0  main.o ABSOLUTE
    ..\Src\moshicanshu.c                     0x00000000   Number         0  moshicanshu.o ABSOLUTE
    ..\Src\stm32f4xx_hal_msp.c               0x00000000   Number         0  stm32f4xx_hal_msp.o ABSOLUTE
    ..\Src\stm32f4xx_it.c                    0x00000000   Number         0  stm32f4xx_it.o ABSOLUTE
    ..\Src\system_stm32f4xx.c                0x00000000   Number         0  system_stm32f4xx.o ABSOLUTE
    ..\\Src\\moshicanshu.c                   0x00000000   Number         0  moshicanshu.o ABSOLUTE
    dc.s                                     0x00000000   Number         0  dc.o ABSOLUTE
    handlers.s                               0x00000000   Number         0  handlers.o ABSOLUTE
    init.s                                   0x00000000   Number         0  init.o ABSOLUTE
    startup_stm32f405xx.s                    0x00000000   Number         0  startup_stm32f405xx.o ABSOLUTE
    RESET                                    0x08000000   Section      392  startup_stm32f405xx.o(RESET)
    .ARM.Collect$$$$00000000                 0x08000188   Section        0  entry.o(.ARM.Collect$$$$00000000)
    .ARM.Collect$$$$00000001                 0x08000188   Section        4  entry2.o(.ARM.Collect$$$$00000001)
    .ARM.Collect$$$$00000004                 0x0800018c   Section        4  entry5.o(.ARM.Collect$$$$00000004)
    .ARM.Collect$$$$00000008                 0x08000190   Section        0  entry7b.o(.ARM.Collect$$$$00000008)
    .ARM.Collect$$$$0000000A                 0x08000190   Section        0  entry8b.o(.ARM.Collect$$$$0000000A)
    .ARM.Collect$$$$0000000B                 0x08000190   Section        8  entry9a.o(.ARM.Collect$$$$0000000B)
    .ARM.Collect$$$$0000000D                 0x08000198   Section        0  entry10a.o(.ARM.Collect$$$$0000000D)
    .ARM.Collect$$$$0000000F                 0x08000198   Section        0  entry11a.o(.ARM.Collect$$$$0000000F)
    .ARM.Collect$$$$00002712                 0x08000198   Section        4  entry2.o(.ARM.Collect$$$$00002712)
    __lit__00000000                          0x08000198   Data           4  entry2.o(.ARM.Collect$$$$00002712)
    .text                                    0x0800019c   Section       36  startup_stm32f405xx.o(.text)
    $v0                                      0x0800019c   Number         0  startup_stm32f405xx.o(.text)
    .text                                    0x080001c0   Section        0  memcpya.o(.text)
    .text                                    0x080001e4   Section        0  dmul.o(.text)
    .text                                    0x080002c8   Section        0  ddiv.o(.text)
    .text                                    0x080003a6   Section        0  dflti.o(.text)
    .text                                    0x080003c8   Section        0  dfltui.o(.text)
    .text                                    0x080003e2   Section        0  dfixi.o(.text)
    .text                                    0x08000420   Section        0  dfixui.o(.text)
    .text                                    0x08000452   Section        0  f2d.o(.text)
    .text                                    0x08000478   Section        0  d2f.o(.text)
    .text                                    0x080004b0   Section        0  llushr.o(.text)
    .text                                    0x080004d0   Section        0  iusefp.o(.text)
    .text                                    0x080004d0   Section        0  fepilogue.o(.text)
    .text                                    0x0800053e   Section        0  depilogue.o(.text)
    .text                                    0x080005f8   Section       36  init.o(.text)
    .text                                    0x0800061c   Section        0  llshl.o(.text)
    .text                                    0x0800063a   Section        0  __dczerorl2.o(.text)
    i.BusFault_Handler                       0x08000690   Section        0  stm32f4xx_it.o(i.BusFault_Handler)
    i.CAN1_RX0_IRQHandler                    0x08000694   Section        0  stm32f4xx_it.o(i.CAN1_RX0_IRQHandler)
    i.CAN1_TX_IRQHandler                     0x08000740   Section        0  stm32f4xx_it.o(i.CAN1_TX_IRQHandler)
    i.CAN_Receive_IT                         0x0800074c   Section        0  stm32f4xx_hal_can.o(i.CAN_Receive_IT)
    CAN_Receive_IT                           0x0800074d   Thumb Code   294  stm32f4xx_hal_can.o(i.CAN_Receive_IT)
    i.Can_WriteData                          0x08000874   Section        0  moshicanshu.o(i.Can_WriteData)
    i.DATDDP                                 0x080008a8   Section        0  stm32f4xx_hal_msp.o(i.DATDDP)
    i.DMA2_Stream0_IRQHandler                0x080008f8   Section        0  stm32f4xx_it.o(i.DMA2_Stream0_IRQHandler)
    i.DMA2_Stream3_IRQHandler                0x080009e4   Section        0  stm32f4xx_it.o(i.DMA2_Stream3_IRQHandler)
    i.DMA_CalcBaseAndBitshift                0x080009f0   Section        0  stm32f4xx_hal_dma.o(i.DMA_CalcBaseAndBitshift)
    DMA_CalcBaseAndBitshift                  0x080009f1   Thumb Code    34  stm32f4xx_hal_dma.o(i.DMA_CalcBaseAndBitshift)
    i.DMA_CheckFifoParam                     0x08000a18   Section        0  stm32f4xx_hal_dma.o(i.DMA_CheckFifoParam)
    DMA_CheckFifoParam                       0x08000a19   Thumb Code    84  stm32f4xx_hal_dma.o(i.DMA_CheckFifoParam)
    i.DMA_SetConfig                          0x08000a6c   Section        0  stm32f4xx_hal_dma.o(i.DMA_SetConfig)
    DMA_SetConfig                            0x08000a6d   Thumb Code    40  stm32f4xx_hal_dma.o(i.DMA_SetConfig)
    i.DebugMon_Handler                       0x08000a94   Section        0  stm32f4xx_it.o(i.DebugMon_Handler)
    i.EXTI15_10_IRQHandler                   0x08000a98   Section        0  stm32f4xx_it.o(i.EXTI15_10_IRQHandler)
    i.EXTI3_IRQHandler                       0x08000e40   Section        0  stm32f4xx_it.o(i.EXTI3_IRQHandler)
    i.EXTI4_IRQHandler                       0x08000f34   Section        0  stm32f4xx_it.o(i.EXTI4_IRQHandler)
    i.FW_Fixed_Exec                          0x08000f48   Section        0  moshicanshu.o(i.FW_Fixed_Exec)
    i.HAL_CAN_ConfigFilter                   0x08001080   Section        0  stm32f4xx_hal_can.o(i.HAL_CAN_ConfigFilter)
    i.HAL_CAN_ErrorCallback                  0x08001178   Section        0  stm32f4xx_hal_can.o(i.HAL_CAN_ErrorCallback)
    i.HAL_CAN_IRQHandler                     0x0800117c   Section        0  stm32f4xx_hal_can.o(i.HAL_CAN_IRQHandler)
    i.HAL_CAN_Init                           0x080013b0   Section        0  stm32f4xx_hal_can.o(i.HAL_CAN_Init)
    i.HAL_CAN_MspInit                        0x080014f8   Section        0  stm32f4xx_hal_msp.o(i.HAL_CAN_MspInit)
    i.HAL_CAN_Receive_IT                     0x08001608   Section        0  stm32f4xx_hal_can.o(i.HAL_CAN_Receive_IT)
    i.HAL_CAN_RxCpltCallback                 0x080016bc   Section        0  stm32f4xx_hal_can.o(i.HAL_CAN_RxCpltCallback)
    i.HAL_CAN_Transmit_IT                    0x080016be   Section        0  stm32f4xx_hal_can.o(i.HAL_CAN_Transmit_IT)
    i.HAL_CAN_TxCpltCallback                 0x080017e2   Section        0  stm32f4xx_hal_can.o(i.HAL_CAN_TxCpltCallback)
    i.HAL_DMA_DeInit                         0x080017e4   Section        0  stm32f4xx_hal_dma.o(i.HAL_DMA_DeInit)
    i.HAL_DMA_IRQHandler                     0x0800183c   Section        0  stm32f4xx_hal_dma.o(i.HAL_DMA_IRQHandler)
    i.HAL_DMA_Init                           0x080019e4   Section        0  stm32f4xx_hal_dma.o(i.HAL_DMA_Init)
    i.HAL_DMA_Start_IT                       0x08001ab8   Section        0  stm32f4xx_hal_dma.o(i.HAL_DMA_Start_IT)
    i.HAL_GPIO_DeInit                        0x08001b30   Section        0  stm32f4xx_hal_gpio.o(i.HAL_GPIO_DeInit)
    i.HAL_GPIO_EXTI_Callback                 0x08001c78   Section        0  stm32f4xx_hal_gpio.o(i.HAL_GPIO_EXTI_Callback)
    i.HAL_GPIO_EXTI_IRQHandler               0x08001c7c   Section        0  stm32f4xx_hal_gpio.o(i.HAL_GPIO_EXTI_IRQHandler)
    i.HAL_GPIO_Init                          0x08001c94   Section        0  stm32f4xx_hal_gpio.o(i.HAL_GPIO_Init)
    i.HAL_GPIO_ReadPin                       0x08001e44   Section        0  stm32f4xx_hal_gpio.o(i.HAL_GPIO_ReadPin)
    i.HAL_GPIO_WritePin                      0x08001e4e   Section        0  stm32f4xx_hal_gpio.o(i.HAL_GPIO_WritePin)
    i.HAL_GetTick                            0x08001e58   Section        0  stm32f4xx_hal.o(i.HAL_GetTick)
    i.HAL_I2C_GetError                       0x08001e64   Section        0  stm32f4xx_hal_i2c.o(i.HAL_I2C_GetError)
    i.HAL_I2C_Init                           0x08001e68   Section        0  stm32f4xx_hal_i2c.o(i.HAL_I2C_Init)
    i.HAL_I2C_Mem_Read                       0x08001f70   Section        0  stm32f4xx_hal_i2c.o(i.HAL_I2C_Mem_Read)
    i.HAL_I2C_Mem_Write                      0x0800216c   Section        0  stm32f4xx_hal_i2c.o(i.HAL_I2C_Mem_Write)
    i.HAL_I2C_MspInit                        0x080022a8   Section        0  stm32f4xx_hal_msp.o(i.HAL_I2C_MspInit)
    i.HAL_IncTick                            0x080022f4   Section        0  stm32f4xx_hal.o(i.HAL_IncTick)
    i.HAL_Init                               0x08002304   Section        0  stm32f4xx_hal.o(i.HAL_Init)
    i.HAL_InitTick                           0x08002338   Section        0  stm32f4xx_hal.o(i.HAL_InitTick)
    i.HAL_MspInit                            0x08002360   Section        0  stm32f4xx_hal_msp.o(i.HAL_MspInit)
    i.HAL_NVIC_EnableIRQ                     0x080023b8   Section        0  stm32f4xx_hal_cortex.o(i.HAL_NVIC_EnableIRQ)
    i.HAL_NVIC_SetPriority                   0x080023d0   Section        0  stm32f4xx_hal_cortex.o(i.HAL_NVIC_SetPriority)
    i.HAL_NVIC_SetPriorityGrouping           0x08002410   Section        0  stm32f4xx_hal_cortex.o(i.HAL_NVIC_SetPriorityGrouping)
    i.HAL_RCC_ClockConfig                    0x08002434   Section        0  stm32f4xx_hal_rcc.o(i.HAL_RCC_ClockConfig)
    i.HAL_RCC_GetHCLKFreq                    0x080025b0   Section        0  stm32f4xx_hal_rcc.o(i.HAL_RCC_GetHCLKFreq)
    i.HAL_RCC_GetPCLK1Freq                   0x080025bc   Section        0  stm32f4xx_hal_rcc.o(i.HAL_RCC_GetPCLK1Freq)
    i.HAL_RCC_GetSysClockFreq                0x080025ec   Section        0  stm32f4xx_hal_rcc.o(i.HAL_RCC_GetSysClockFreq)
    i.HAL_RCC_OscConfig                      0x0800265c   Section        0  stm32f4xx_hal_rcc.o(i.HAL_RCC_OscConfig)
    i.HAL_SPI_DeInit                         0x08002970   Section        0  stm32f4xx_hal_spi.o(i.HAL_SPI_DeInit)
    i.HAL_SPI_ErrorCallback                  0x0800299e   Section        0  stm32f4xx_hal_spi.o(i.HAL_SPI_ErrorCallback)
    i.HAL_SPI_Init                           0x080029a0   Section        0  stm32f4xx_hal_spi.o(i.HAL_SPI_Init)
    i.HAL_SPI_MspDeInit                      0x08002a20   Section        0  stm32f4xx_hal_msp.o(i.HAL_SPI_MspDeInit)
    i.HAL_SPI_MspInit                        0x08002a5c   Section        0  stm32f4xx_hal_msp.o(i.HAL_SPI_MspInit)
    i.HAL_SPI_RxCpltCallback                 0x08002b40   Section        0  stm32f4xx_hal_spi.o(i.HAL_SPI_RxCpltCallback)
    i.HAL_SPI_RxHalfCpltCallback             0x08002b42   Section        0  stm32f4xx_hal_spi.o(i.HAL_SPI_RxHalfCpltCallback)
    i.HAL_SPI_TransmitReceive_DMA            0x08002b44   Section        0  stm32f4xx_hal_spi.o(i.HAL_SPI_TransmitReceive_DMA)
    i.HAL_SPI_TxRxCpltCallback               0x08002c4c   Section        0  stm32f4xx_hal_spi.o(i.HAL_SPI_TxRxCpltCallback)
    i.HAL_SPI_TxRxHalfCpltCallback           0x08002c4e   Section        0  stm32f4xx_hal_spi.o(i.HAL_SPI_TxRxHalfCpltCallback)
    i.HAL_SYSTICK_CLKSourceConfig            0x08002c50   Section        0  stm32f4xx_hal_cortex.o(i.HAL_SYSTICK_CLKSourceConfig)
    i.HAL_SYSTICK_Callback                   0x08002c68   Section        0  stm32f4xx_hal_cortex.o(i.HAL_SYSTICK_Callback)
    i.HAL_SYSTICK_Config                     0x08002c6a   Section        0  stm32f4xx_hal_cortex.o(i.HAL_SYSTICK_Config)
    i.HAL_SYSTICK_IRQHandler                 0x08002c92   Section        0  stm32f4xx_hal_cortex.o(i.HAL_SYSTICK_IRQHandler)
    i.HAL_TIMEx_BreakCallback                0x08002c9a   Section        0  stm32f4xx_hal_tim_ex.o(i.HAL_TIMEx_BreakCallback)
    i.HAL_TIMEx_CommutationCallback          0x08002c9c   Section        0  stm32f4xx_hal_tim_ex.o(i.HAL_TIMEx_CommutationCallback)
    i.HAL_TIMEx_MasterConfigSynchronization  0x08002c9e   Section        0  stm32f4xx_hal_tim_ex.o(i.HAL_TIMEx_MasterConfigSynchronization)
    i.HAL_TIM_Base_Init                      0x08002cee   Section        0  stm32f4xx_hal_tim.o(i.HAL_TIM_Base_Init)
    i.HAL_TIM_Base_MspInit                   0x08002d24   Section        0  stm32f4xx_hal_msp.o(i.HAL_TIM_Base_MspInit)
    i.HAL_TIM_Base_Start_IT                  0x08002d94   Section        0  stm32f4xx_hal_tim.o(i.HAL_TIM_Base_Start_IT)
    i.HAL_TIM_ConfigClockSource              0x08002dac   Section        0  stm32f4xx_hal_tim.o(i.HAL_TIM_ConfigClockSource)
    i.HAL_TIM_IC_CaptureCallback             0x08002e9e   Section        0  stm32f4xx_hal_tim.o(i.HAL_TIM_IC_CaptureCallback)
    i.HAL_TIM_IRQHandler                     0x08002ea0   Section        0  stm32f4xx_hal_tim.o(i.HAL_TIM_IRQHandler)
    i.HAL_TIM_OC_DelayElapsedCallback        0x08003006   Section        0  stm32f4xx_hal_tim.o(i.HAL_TIM_OC_DelayElapsedCallback)
    i.HAL_TIM_PWM_PulseFinishedCallback      0x08003008   Section        0  stm32f4xx_hal_tim.o(i.HAL_TIM_PWM_PulseFinishedCallback)
    i.HAL_TIM_PeriodElapsedCallback          0x0800300a   Section        0  stm32f4xx_hal_tim.o(i.HAL_TIM_PeriodElapsedCallback)
    i.HAL_TIM_TriggerCallback                0x0800300c   Section        0  stm32f4xx_hal_tim.o(i.HAL_TIM_TriggerCallback)
    i.HX530_Senddata                         0x08003010   Section        0  stm32f4xx_hal_msp.o(i.HX530_Senddata)
    i.HX530_readdata                         0x08003114   Section        0  stm32f4xx_hal_msp.o(i.HX530_readdata)
    i.H_Xy_fan                               0x08003204   Section        0  moshicanshu.o(i.H_Xy_fan)
    i.HardFault_Handler                      0x08003280   Section        0  stm32f4xx_it.o(i.HardFault_Handler)
    i.HuanFan                                0x08003284   Section        0  stm32f4xx_it.o(i.HuanFan)
    i.I2C_IsAcknowledgeFailed                0x08003314   Section        0  stm32f4xx_hal_i2c.o(i.I2C_IsAcknowledgeFailed)
    I2C_IsAcknowledgeFailed                  0x08003315   Thumb Code    40  stm32f4xx_hal_i2c.o(i.I2C_IsAcknowledgeFailed)
    i.I2C_RequestMemoryRead                  0x0800333c   Section        0  stm32f4xx_hal_i2c.o(i.I2C_RequestMemoryRead)
    I2C_RequestMemoryRead                    0x0800333d   Thumb Code   240  stm32f4xx_hal_i2c.o(i.I2C_RequestMemoryRead)
    i.I2C_RequestMemoryWrite                 0x0800342c   Section        0  stm32f4xx_hal_i2c.o(i.I2C_RequestMemoryWrite)
    I2C_RequestMemoryWrite                   0x0800342d   Thumb Code   156  stm32f4xx_hal_i2c.o(i.I2C_RequestMemoryWrite)
    i.I2C_WaitOnBTFFlagUntilTimeout          0x080034cc   Section        0  stm32f4xx_hal_i2c.o(i.I2C_WaitOnBTFFlagUntilTimeout)
    I2C_WaitOnBTFFlagUntilTimeout            0x080034cd   Thumb Code    78  stm32f4xx_hal_i2c.o(i.I2C_WaitOnBTFFlagUntilTimeout)
    i.I2C_WaitOnFlagUntilTimeout             0x0800351a   Section        0  stm32f4xx_hal_i2c.o(i.I2C_WaitOnFlagUntilTimeout)
    I2C_WaitOnFlagUntilTimeout               0x0800351b   Thumb Code    96  stm32f4xx_hal_i2c.o(i.I2C_WaitOnFlagUntilTimeout)
    i.I2C_WaitOnMasterAddressFlagUntilTimeout 0x0800357c   Section        0  stm32f4xx_hal_i2c.o(i.I2C_WaitOnMasterAddressFlagUntilTimeout)
    I2C_WaitOnMasterAddressFlagUntilTimeout  0x0800357d   Thumb Code   136  stm32f4xx_hal_i2c.o(i.I2C_WaitOnMasterAddressFlagUntilTimeout)
    i.I2C_WaitOnRXNEFlagUntilTimeout         0x08003604   Section        0  stm32f4xx_hal_i2c.o(i.I2C_WaitOnRXNEFlagUntilTimeout)
    I2C_WaitOnRXNEFlagUntilTimeout           0x08003605   Thumb Code    98  stm32f4xx_hal_i2c.o(i.I2C_WaitOnRXNEFlagUntilTimeout)
    i.I2C_WaitOnTXEFlagUntilTimeout          0x08003666   Section        0  stm32f4xx_hal_i2c.o(i.I2C_WaitOnTXEFlagUntilTimeout)
    I2C_WaitOnTXEFlagUntilTimeout            0x08003667   Thumb Code    78  stm32f4xx_hal_i2c.o(i.I2C_WaitOnTXEFlagUntilTimeout)
    i.MX_CAN1_Init                           0x080036b4   Section        0  main.o(i.MX_CAN1_Init)
    MX_CAN1_Init                             0x080036b5   Thumb Code    54  main.o(i.MX_CAN1_Init)
    i.MX_GPIO_Init                           0x080036f4   Section        0  main.o(i.MX_GPIO_Init)
    MX_GPIO_Init                             0x080036f5   Thumb Code   332  main.o(i.MX_GPIO_Init)
    i.MX_I2C2_Init                           0x08003858   Section        0  main.o(i.MX_I2C2_Init)
    MX_I2C2_Init                             0x08003859   Thumb Code    44  main.o(i.MX_I2C2_Init)
    i.MX_NVIC_Init                           0x08003890   Section        0  main.o(i.MX_NVIC_Init)
    MX_NVIC_Init                             0x08003891   Thumb Code   182  main.o(i.MX_NVIC_Init)
    i.MX_SPI1_Init                           0x08003948   Section        0  main.o(i.MX_SPI1_Init)
    MX_SPI1_Init                             0x08003949   Thumb Code    52  main.o(i.MX_SPI1_Init)
    i.MX_TIM2_Init                           0x08003984   Section        0  main.o(i.MX_TIM2_Init)
    MX_TIM2_Init                             0x08003985   Thumb Code    76  main.o(i.MX_TIM2_Init)
    i.MX_TIM2_SET                            0x080039d4   Section        0  main.o(i.MX_TIM2_SET)
    i.MX_TIM3_Init                           0x080039f8   Section        0  main.o(i.MX_TIM3_Init)
    MX_TIM3_Init                             0x080039f9   Thumb Code    74  main.o(i.MX_TIM3_Init)
    i.MX_TIM3_SET                            0x08003a4c   Section        0  main.o(i.MX_TIM3_SET)
    i.MX_TIM4_Init                           0x08003a70   Section        0  main.o(i.MX_TIM4_Init)
    MX_TIM4_Init                             0x08003a71   Thumb Code    74  main.o(i.MX_TIM4_Init)
    i.MX_TIM4_SET                            0x08003ac4   Section        0  main.o(i.MX_TIM4_SET)
    i.MX_TIM5_Init                           0x08003ae8   Section        0  main.o(i.MX_TIM5_Init)
    MX_TIM5_Init                             0x08003ae9   Thumb Code    80  main.o(i.MX_TIM5_Init)
    i.MX_TIM5_SET                            0x08003b40   Section        0  main.o(i.MX_TIM5_SET)
    i.MemManage_Handler                      0x08003b64   Section        0  stm32f4xx_it.o(i.MemManage_Handler)
    i.NMI_Handler                            0x08003b66   Section        0  stm32f4xx_it.o(i.NMI_Handler)
    i.NVIC_SetPriority                       0x08003b68   Section        0  stm32f4xx_hal_cortex.o(i.NVIC_SetPriority)
    NVIC_SetPriority                         0x08003b69   Thumb Code    32  stm32f4xx_hal_cortex.o(i.NVIC_SetPriority)
    i.PendSV_Handler                         0x08003b88   Section        0  stm32f4xx_it.o(i.PendSV_Handler)
    i.RD_AM8192                              0x08003b8c   Section        0  stm32f4xx_it.o(i.RD_AM8192)
    i.Read1_AM8192                           0x08003be4   Section        0  stm32f4xx_it.o(i.Read1_AM8192)
    i.Read_AM8192                            0x08003c38   Section        0  stm32f4xx_it.o(i.Read_AM8192)
    i.SPI_CheckFlag_BSY                      0x08003c94   Section        0  stm32f4xx_hal_spi.o(i.SPI_CheckFlag_BSY)
    SPI_CheckFlag_BSY                        0x08003c95   Thumb Code    32  stm32f4xx_hal_spi.o(i.SPI_CheckFlag_BSY)
    i.SPI_DMAError                           0x08003cb4   Section        0  stm32f4xx_hal_spi.o(i.SPI_DMAError)
    SPI_DMAError                             0x08003cb5   Thumb Code    34  stm32f4xx_hal_spi.o(i.SPI_DMAError)
    i.SPI_DMAHalfReceiveCplt                 0x08003cd6   Section        0  stm32f4xx_hal_spi.o(i.SPI_DMAHalfReceiveCplt)
    SPI_DMAHalfReceiveCplt                   0x08003cd7   Thumb Code    10  stm32f4xx_hal_spi.o(i.SPI_DMAHalfReceiveCplt)
    i.SPI_DMAHalfTransmitReceiveCplt         0x08003ce0   Section        0  stm32f4xx_hal_spi.o(i.SPI_DMAHalfTransmitReceiveCplt)
    SPI_DMAHalfTransmitReceiveCplt           0x08003ce1   Thumb Code    10  stm32f4xx_hal_spi.o(i.SPI_DMAHalfTransmitReceiveCplt)
    i.SPI_DMAReceiveCplt                     0x08003cea   Section        0  stm32f4xx_hal_spi.o(i.SPI_DMAReceiveCplt)
    SPI_DMAReceiveCplt                       0x08003ceb   Thumb Code    82  stm32f4xx_hal_spi.o(i.SPI_DMAReceiveCplt)
    i.SPI_DMATransmitReceiveCplt             0x08003d3c   Section        0  stm32f4xx_hal_spi.o(i.SPI_DMATransmitReceiveCplt)
    SPI_DMATransmitReceiveCplt               0x08003d3d   Thumb Code    80  stm32f4xx_hal_spi.o(i.SPI_DMATransmitReceiveCplt)
    i.SPI_WaitFlagStateUntilTimeout          0x08003d8c   Section        0  stm32f4xx_hal_spi.o(i.SPI_WaitFlagStateUntilTimeout)
    SPI_WaitFlagStateUntilTimeout            0x08003d8d   Thumb Code   150  stm32f4xx_hal_spi.o(i.SPI_WaitFlagStateUntilTimeout)
    i.SVC_Handler                            0x08003e22   Section        0  stm32f4xx_it.o(i.SVC_Handler)
    i.SysTick_Handler                        0x08003e24   Section        0  stm32f4xx_it.o(i.SysTick_Handler)
    i.SystemClock_Config                     0x0800508c   Section        0  main.o(i.SystemClock_Config)
    i.SystemInit                             0x08005128   Section        0  system_stm32f4xx.o(i.SystemInit)
    i.TIM2_IRQHandler                        0x0800517c   Section        0  stm32f4xx_it.o(i.TIM2_IRQHandler)
    i.TIM3_IRQHandler                        0x08005458   Section        0  stm32f4xx_it.o(i.TIM3_IRQHandler)
    i.TIM4_IRQHandler                        0x08005524   Section        0  stm32f4xx_it.o(i.TIM4_IRQHandler)
    i.TIM5_IRQHandler                        0x080055d0   Section        0  stm32f4xx_it.o(i.TIM5_IRQHandler)
    i.TIM_Base_SetConfig                     0x08005640   Section        0  stm32f4xx_hal_tim.o(i.TIM_Base_SetConfig)
    i.TIM_ETR_SetConfig                      0x08005700   Section        0  stm32f4xx_hal_tim.o(i.TIM_ETR_SetConfig)
    TIM_ETR_SetConfig                        0x08005701   Thumb Code    20  stm32f4xx_hal_tim.o(i.TIM_ETR_SetConfig)
    i.TIM_ITRx_SetConfig                     0x08005714   Section        0  stm32f4xx_hal_tim.o(i.TIM_ITRx_SetConfig)
    TIM_ITRx_SetConfig                       0x08005715   Thumb Code    16  stm32f4xx_hal_tim.o(i.TIM_ITRx_SetConfig)
    i.TIM_TI1_ConfigInputStage               0x08005724   Section        0  stm32f4xx_hal_tim.o(i.TIM_TI1_ConfigInputStage)
    TIM_TI1_ConfigInputStage                 0x08005725   Thumb Code    34  stm32f4xx_hal_tim.o(i.TIM_TI1_ConfigInputStage)
    i.TIM_TI2_ConfigInputStage               0x08005746   Section        0  stm32f4xx_hal_tim.o(i.TIM_TI2_ConfigInputStage)
    TIM_TI2_ConfigInputStage                 0x08005747   Thumb Code    36  stm32f4xx_hal_tim.o(i.TIM_TI2_ConfigInputStage)
    i.UsageFault_Handler                     0x0800576a   Section        0  stm32f4xx_it.o(i.UsageFault_Handler)
    i.XJ_ext                                 0x0800576c   Section        0  stm32f4xx_it.o(i.XJ_ext)
    i.Z_H_SaoMiao                            0x08005794   Section        0  stm32f4xx_it.o(i.Z_H_SaoMiao)
    i._Error_Handler                         0x08005898   Section        0  main.o(i._Error_Handler)
    i.__scatterload_copy                     0x0800589a   Section       14  handlers.o(i.__scatterload_copy)
    i.__scatterload_null                     0x080058a8   Section        2  handlers.o(i.__scatterload_null)
    i.__scatterload_zeroinit                 0x080058aa   Section       14  handlers.o(i.__scatterload_zeroinit)
    i.allfwei                                0x080058b8   Section        0  stm32f4xx_it.o(i.allfwei)
    i.chk_kuaifan_24                         0x08005960   Section        0  stm32f4xx_it.o(i.chk_kuaifan_24)
    i.chk_mowan                              0x0800599c   Section        0  stm32f4xx_it.o(i.chk_mowan)
    i.clr_8192_RD                            0x080059d8   Section        0  moshicanshu.o(i.clr_8192_RD)
    i.clr_f8                                 0x08005a04   Section        0  moshicanshu.o(i.clr_f8)
    i.dpdatclr                               0x08005a44   Section        0  moshicanshu.o(i.dpdatclr)
    i.excfanwei_STOP                         0x08005a94   Section        0  moshicanshu.o(i.excfanwei_STOP)
    i.excomm_QJkz                            0x08005b5c   Section        0  moshicanshu.o(i.excomm_QJkz)
    i.exczsfanwei_BJ                         0x08005b78   Section        0  moshicanshu.o(i.exczsfanwei_BJ)
    i.exczsfanwei_ST                         0x08005ba8   Section        0  moshicanshu.o(i.exczsfanwei_ST)
    i.exppfw                                 0x08005bc8   Section        0  moshicanshu.o(i.exppfw)
    i.fanchafanweixiabiao                    0x08005cac   Section        0  moshicanshu.o(i.fanchafanweixiabiao)
    i.fweipandin                             0x08005cc8   Section        0  moshicanshu.o(i.fweipandin)
    i.jsfxwz                                 0x08005cdc   Section        0  moshicanshu.o(i.jsfxwz)
    i.main                                   0x08005d0c   Section        0  main.o(i.main)
    i.setfanwei                              0x08006bcc   Section        0  main.o(i.setfanwei)
    i.smypfwei                               0x08006bf0   Section        0  stm32f4xx_it.o(i.smypfwei)
    .constdata                               0x08006d24   Section        8  stm32f4xx_hal_dma.o(.constdata)
    flagBitshiftOffset                       0x08006d24   Data           8  stm32f4xx_hal_dma.o(.constdata)
    .constdata                               0x08006d2c   Section       16  system_stm32f4xx.o(.constdata)
    .constdata                               0x08006d3c   Section        8  system_stm32f4xx.o(.constdata)
    .constdata                               0x08006d44   Section       68  moshicanshu.o(.constdata)
    .constdata                               0x08006d88   Section        8  moshicanshu.o(.constdata)
    .constdata                               0x08006d90   Section        8  moshicanshu.o(.constdata)
    .constdata                               0x08006d98   Section        8  moshicanshu.o(.constdata)
    .constdata                               0x08006da0   Section        8  moshicanshu.o(.constdata)
    .constdata                               0x08006da8   Section        8  moshicanshu.o(.constdata)
    .constdata                               0x08006db0   Section        8  moshicanshu.o(.constdata)
    .constdata                               0x08006db8   Section        8  moshicanshu.o(.constdata)
    .constdata                               0x08006dc0   Section        8  moshicanshu.o(.constdata)
    .constdata                               0x08006dc8   Section        8  moshicanshu.o(.constdata)
    .constdata                               0x08006dd0   Section        8  moshicanshu.o(.constdata)
    .constdata                               0x08006dd8   Section        8  moshicanshu.o(.constdata)
    .constdata                               0x08006de0   Section        8  moshicanshu.o(.constdata)
    .constdata                               0x08006de8   Section        8  moshicanshu.o(.constdata)
    .constdata                               0x08006df0   Section        8  moshicanshu.o(.constdata)
    .constdata                               0x08006df8   Section        8  moshicanshu.o(.constdata)
    .constdata                               0x08006e00   Section        8  moshicanshu.o(.constdata)
    .constdata                               0x08006e08   Section        5  moshicanshu.o(.constdata)
    .constdata                               0x08006e0d   Section        5  moshicanshu.o(.constdata)
    .constdata                               0x08006e12   Section        6  moshicanshu.o(.constdata)
    .constdata                               0x08006e18   Section        5  moshicanshu.o(.constdata)
    .constdata                               0x08006e1d   Section        6  moshicanshu.o(.constdata)
    .constdata                               0x08006e23   Section        5  moshicanshu.o(.constdata)
    .constdata                               0x08006e28   Section        5  moshicanshu.o(.constdata)
    .constdata                               0x08006e2d   Section        6  moshicanshu.o(.constdata)
    .constdata                               0x08006e33   Section        6  moshicanshu.o(.constdata)
    .constdata                               0x08006e39   Section        5  moshicanshu.o(.constdata)
    .constdata                               0x08006e3e   Section        6  moshicanshu.o(.constdata)
    .constdata                               0x08006e44   Section        5  moshicanshu.o(.constdata)
    .constdata                               0x08006e49   Section        5  moshicanshu.o(.constdata)
    .constdata                               0x08006e4e   Section        5  moshicanshu.o(.constdata)
    .constdata                               0x08006e53   Section        5  moshicanshu.o(.constdata)
    .constdata                               0x08006e58   Section        6  moshicanshu.o(.constdata)
    .constdata                               0x08006e5e   Section        5  moshicanshu.o(.constdata)
    .constdata                               0x08006e63   Section        5  moshicanshu.o(.constdata)
    .constdata                               0x08006e68   Section        5  moshicanshu.o(.constdata)
    .constdata                               0x08006e6d   Section        5  moshicanshu.o(.constdata)
    .constdata                               0x08006e72   Section        5  moshicanshu.o(.constdata)
    .constdata                               0x08006e77   Section        6  moshicanshu.o(.constdata)
    .constdata                               0x08006e7d   Section        6  moshicanshu.o(.constdata)
    .constdata                               0x08006e83   Section        6  moshicanshu.o(.constdata)
    .constdata                               0x08006e89   Section        6  moshicanshu.o(.constdata)
    .constdata                               0x08006e8f   Section        6  moshicanshu.o(.constdata)
    .constdata                               0x08006e95   Section        6  moshicanshu.o(.constdata)
    .constdata                               0x08006e9b   Section        5  moshicanshu.o(.constdata)
    .constdata                               0x08006ea0   Section        5  moshicanshu.o(.constdata)
    .constdata                               0x08006ea5   Section        5  moshicanshu.o(.constdata)
    .constdata                               0x08006eaa   Section        5  moshicanshu.o(.constdata)
    .constdata                               0x08006eaf   Section        6  moshicanshu.o(.constdata)
    .constdata                               0x08006eb5   Section        5  moshicanshu.o(.constdata)
    .constdata                               0x08006eba   Section        5  moshicanshu.o(.constdata)
    .constdata                               0x08006ebf   Section        6  moshicanshu.o(.constdata)
    .constdata                               0x08006ec5   Section        6  moshicanshu.o(.constdata)
    .constdata                               0x08006ecb   Section        6  moshicanshu.o(.constdata)
    .constdata                               0x08006ed1   Section        6  moshicanshu.o(.constdata)
    .constdata                               0x08006ed7   Section        6  moshicanshu.o(.constdata)
    .constdata                               0x08006edd   Section        5  moshicanshu.o(.constdata)
    .constdata                               0x08006ee2   Section        5  moshicanshu.o(.constdata)
    .constdata                               0x08006ee7   Section        5  moshicanshu.o(.constdata)
    .constdata                               0x08006eec   Section        5  moshicanshu.o(.constdata)
    .constdata                               0x08006ef1   Section        5  moshicanshu.o(.constdata)
    .constdata                               0x08006ef6   Section        5  moshicanshu.o(.constdata)
    .constdata                               0x08006efb   Section        5  moshicanshu.o(.constdata)
    .constdata                               0x08006f00   Section        5  moshicanshu.o(.constdata)
    .constdata                               0x08006f05   Section        5  moshicanshu.o(.constdata)
    .constdata                               0x08006f0a   Section        9  moshicanshu.o(.constdata)
    .constdata                               0x08006f13   Section        9  moshicanshu.o(.constdata)
    .constdata                               0x08006f1c   Section        9  moshicanshu.o(.constdata)
    .constdata                               0x08006f25   Section        9  moshicanshu.o(.constdata)
    .constdata                               0x08006f2e   Section        9  moshicanshu.o(.constdata)
    .constdata                               0x08006f37   Section        9  moshicanshu.o(.constdata)
    .constdata                               0x08006f40   Section        9  moshicanshu.o(.constdata)
    .constdata                               0x08006f49   Section        9  moshicanshu.o(.constdata)
    .constdata                               0x08006f52   Section        9  moshicanshu.o(.constdata)
    .constdata                               0x08006f5b   Section        9  moshicanshu.o(.constdata)
    .constdata                               0x08006f64   Section        9  moshicanshu.o(.constdata)
    .constdata                               0x08006f6d   Section        9  moshicanshu.o(.constdata)
    .constdata                               0x08006f76   Section        9  moshicanshu.o(.constdata)
    .constdata                               0x08006f7f   Section        9  moshicanshu.o(.constdata)
    .constdata                               0x08006f88   Section        9  moshicanshu.o(.constdata)
    .constdata                               0x08006f91   Section        9  moshicanshu.o(.constdata)
    .constdata                               0x08006f9a   Section        9  moshicanshu.o(.constdata)
    .constdata                               0x08006fa3   Section        9  moshicanshu.o(.constdata)
    .constdata                               0x08006fac   Section        9  moshicanshu.o(.constdata)
    .constdata                               0x08006fb5   Section        9  moshicanshu.o(.constdata)
    .constdata                               0x08006fbe   Section        9  moshicanshu.o(.constdata)
    .constdata                               0x08006fc7   Section        9  moshicanshu.o(.constdata)
    .constdata                               0x08006fd0   Section        9  moshicanshu.o(.constdata)
    .constdata                               0x08006fd9   Section        9  moshicanshu.o(.constdata)
    .constdata                               0x08006fe2   Section        9  moshicanshu.o(.constdata)
    .constdata                               0x08006feb   Section        9  moshicanshu.o(.constdata)
    .constdata                               0x08006ff4   Section        9  moshicanshu.o(.constdata)
    .constdata                               0x08006ffd   Section        9  moshicanshu.o(.constdata)
    .constdata                               0x08007006   Section        9  moshicanshu.o(.constdata)
    .constdata                               0x0800700f   Section        9  moshicanshu.o(.constdata)
    .constdata                               0x08007018   Section        9  moshicanshu.o(.constdata)
    .constdata                               0x08007021   Section        9  moshicanshu.o(.constdata)
    .constdata                               0x0800702a   Section        3  moshicanshu.o(.constdata)
    .constdata                               0x0800702d   Section        3  moshicanshu.o(.constdata)
    .constdata                               0x08007030   Section        9  moshicanshu.o(.constdata)
    .constdata                               0x08007039   Section        9  moshicanshu.o(.constdata)
    .constdata                               0x08007042   Section        3  moshicanshu.o(.constdata)
    .constdata                               0x08007045   Section        3  moshicanshu.o(.constdata)
    .constdata                               0x08007048   Section        3  moshicanshu.o(.constdata)
    .constdata                               0x0800704b   Section        9  moshicanshu.o(.constdata)
    .constdata                               0x08007054   Section        9  moshicanshu.o(.constdata)
    .constdata                               0x0800705d   Section        3  moshicanshu.o(.constdata)
    .constdata                               0x08007060   Section        3  moshicanshu.o(.constdata)
    .constdata                               0x08007063   Section        3  moshicanshu.o(.constdata)
    .constdata                               0x08007066   Section        9  moshicanshu.o(.constdata)
    .constdata                               0x0800706f   Section        9  moshicanshu.o(.constdata)
    .constdata                               0x08007078   Section        3  moshicanshu.o(.constdata)
    .constdata                               0x0800707b   Section        3  moshicanshu.o(.constdata)
    .data                                    0x20000000   Section        4  stm32f4xx_hal.o(.data)
    .data                                    0x20000004   Section        4  system_stm32f4xx.o(.data)
    .data                                    0x20000008   Section        1  main.o(.data)
    .data                                    0x20000009   Section        1  main.o(.data)
    .data                                    0x2000000a   Section        1  main.o(.data)
    .data                                    0x2000000c   Section      110  main.o(.data)
    .data                                    0x2000007c   Section        8  main.o(.data)
    .data                                    0x20000084   Section        8  main.o(.data)
    .data                                    0x2000008c   Section        6  main.o(.data)
    .data                                    0x20000092   Section        2  main.o(.data)
    .data                                    0x20000094   Section        4  main.o(.data)
    .data                                    0x20000098   Section        4  main.o(.data)
    .data                                    0x2000009c   Section        4  main.o(.data)
    .data                                    0x200000a0   Section        1  main.o(.data)
    .data                                    0x200000a1   Section        1  main.o(.data)
    .data                                    0x200000a2   Section        1  main.o(.data)
    .data                                    0x200000a3   Section        1  main.o(.data)
    .data                                    0x200000a4   Section        4  main.o(.data)
    .data                                    0x200000a8   Section        4  main.o(.data)
    .data                                    0x200000ac   Section        1  main.o(.data)
    .data                                    0x200000ad   Section        1  main.o(.data)
    .data                                    0x200000ae   Section        1  main.o(.data)
    .data                                    0x200000af   Section        1  main.o(.data)
    .data                                    0x200000b0   Section        1  main.o(.data)
    .data                                    0x200000b1   Section        1  main.o(.data)
    .data                                    0x200000b2   Section        1  main.o(.data)
    .data                                    0x200000b3   Section        1  main.o(.data)
    .data                                    0x200000b4   Section        1  main.o(.data)
    .data                                    0x200000b5   Section        1  main.o(.data)
    .data                                    0x200000b6   Section        1  main.o(.data)
    .data                                    0x200000b7   Section        1  main.o(.data)
    .data                                    0x200000b8   Section        1  main.o(.data)
    .data                                    0x200000b9   Section        1  main.o(.data)
    .data                                    0x200000ba   Section        1  main.o(.data)
    .data                                    0x200000bb   Section        1  main.o(.data)
    .data                                    0x200000bc   Section        1  main.o(.data)
    .data                                    0x200000bd   Section        1  main.o(.data)
    .data                                    0x200000be   Section        2  main.o(.data)
    .data                                    0x200000c0   Section        2  main.o(.data)
    .data                                    0x200000c2   Section        2  main.o(.data)
    .data                                    0x200000c4   Section        2  main.o(.data)
    .data                                    0x200000c8   Section        4  main.o(.data)
    .data                                    0x200000cc   Section        4  main.o(.data)
    .data                                    0x200000d0   Section        4  main.o(.data)
    .data                                    0x200000d4   Section        4  main.o(.data)
    .data                                    0x200000d8   Section        4  main.o(.data)
    .data                                    0x200000dc   Section        4  main.o(.data)
    .data                                    0x200000e0   Section        2  main.o(.data)
    .data                                    0x200000e2   Section        2  main.o(.data)
    .data                                    0x200000e4   Section        2  main.o(.data)
    .data                                    0x200000e6   Section        2  main.o(.data)
    .data                                    0x200000e8   Section        4  main.o(.data)
    .data                                    0x200000ec   Section        4  main.o(.data)
    .data                                    0x200000f0   Section        4  main.o(.data)
    .data                                    0x200000f4   Section        2  main.o(.data)
    .data                                    0x200000f6   Section        1  main.o(.data)
    .data                                    0x200000f7   Section        1  main.o(.data)
    .data                                    0x200000f8   Section        2  main.o(.data)
    .data                                    0x200000fa   Section        2  main.o(.data)
    .data                                    0x200000fc   Section        1  main.o(.data)
    .data                                    0x200000fd   Section        1  main.o(.data)
    .data                                    0x200000fe   Section        1  main.o(.data)
    .data                                    0x200000ff   Section        1  main.o(.data)
    .data                                    0x20000100   Section        1  main.o(.data)
    .data                                    0x20000101   Section        1  main.o(.data)
    .data                                    0x20000102   Section        1  main.o(.data)
    .data                                    0x20000104   Section        2  main.o(.data)
    .data                                    0x20000106   Section        1  main.o(.data)
    .data                                    0x20000108   Section        8  stm32f4xx_hal_msp.o(.data)
    .data                                    0x20000110   Section       20  stm32f4xx_it.o(.data)
    .data                                    0x20000124   Section       64  moshicanshu.o(.data)
    .data                                    0x20000164   Section       64  moshicanshu.o(.data)
    .data                                    0x200001a4   Section       64  moshicanshu.o(.data)
    .data                                    0x200001e4   Section       64  moshicanshu.o(.data)
    .data                                    0x20000224   Section       64  moshicanshu.o(.data)
    .data                                    0x20000264   Section       64  moshicanshu.o(.data)
    .data                                    0x200002a4   Section       64  moshicanshu.o(.data)
    .data                                    0x200002e4   Section       64  moshicanshu.o(.data)
    .data                                    0x20000324   Section       32  moshicanshu.o(.data)
    .bss                                     0x20000344   Section     5680  main.o(.bss)
    .bss                                     0x20001974   Section       96  main.o(.bss)
    .bss                                     0x200019d4   Section       96  main.o(.bss)
    .bss                                     0x20001a34   Section       28  main.o(.bss)
    .bss                                     0x20001a50   Section       36  main.o(.bss)
    .bss                                     0x20001a74   Section       48  main.o(.bss)
    .bss                                     0x20001aa4   Section       40  stm32f4xx_hal_msp.o(.bss)
    STACK                                    0x20001ad0   Section     1792  startup_stm32f405xx.o(STACK)

    Global Symbols

    Symbol Name                              Value     Ov Type        Size  Object(Section)

    BuildAttributes$$THM_ISAv4$E$P$D$K$B$S$7EM$VFPi3$EXTD16$VFPS$VFMA$PE$A:L22UL41UL21$X:L11$S22US41US21$IEEE1$IW$USESV6$~STKCKD$USESV7$~SHL$OTIME$ROPI$EBA8$MICROLIB$REQ8$PRES8$EABIv2 0x00000000   Number         0  anon$$obj.o ABSOLUTE
    __ARM_use_no_argv                        0x00000000   Number         0  main.o ABSOLUTE
    __cpp_initialize__aeabi_                  - Undefined Weak Reference
    __cxa_finalize                            - Undefined Weak Reference
    _clock_init                               - Undefined Weak Reference
    _microlib_exit                            - Undefined Weak Reference
    __Vectors_Size                           0x00000188   Number         0  startup_stm32f405xx.o ABSOLUTE
    __Vectors                                0x08000000   Data           4  startup_stm32f405xx.o(RESET)
    __Vectors_End                            0x08000188   Data           0  startup_stm32f405xx.o(RESET)
    __main                                   0x08000189   Thumb Code     0  entry.o(.ARM.Collect$$$$00000000)
    _main_stk                                0x08000189   Thumb Code     0  entry2.o(.ARM.Collect$$$$00000001)
    _main_scatterload                        0x0800018d   Thumb Code     0  entry5.o(.ARM.Collect$$$$00000004)
    __main_after_scatterload                 0x08000191   Thumb Code     0  entry5.o(.ARM.Collect$$$$00000004)
    _main_clock                              0x08000191   Thumb Code     0  entry7b.o(.ARM.Collect$$$$00000008)
    _main_cpp_init                           0x08000191   Thumb Code     0  entry8b.o(.ARM.Collect$$$$0000000A)
    _main_init                               0x08000191   Thumb Code     0  entry9a.o(.ARM.Collect$$$$0000000B)
    __rt_final_cpp                           0x08000199   Thumb Code     0  entry10a.o(.ARM.Collect$$$$0000000D)
    __rt_final_exit                          0x08000199   Thumb Code     0  entry11a.o(.ARM.Collect$$$$0000000F)
    Reset_Handler                            0x0800019d   Thumb Code     8  startup_stm32f405xx.o(.text)
    ADC_IRQHandler                           0x080001b7   Thumb Code     0  startup_stm32f405xx.o(.text)
    CAN1_RX1_IRQHandler                      0x080001b7   Thumb Code     0  startup_stm32f405xx.o(.text)
    CAN1_SCE_IRQHandler                      0x080001b7   Thumb Code     0  startup_stm32f405xx.o(.text)
    CAN2_RX0_IRQHandler                      0x080001b7   Thumb Code     0  startup_stm32f405xx.o(.text)
    CAN2_RX1_IRQHandler                      0x080001b7   Thumb Code     0  startup_stm32f405xx.o(.text)
    CAN2_SCE_IRQHandler                      0x080001b7   Thumb Code     0  startup_stm32f405xx.o(.text)
    CAN2_TX_IRQHandler                       0x080001b7   Thumb Code     0  startup_stm32f405xx.o(.text)
    DMA1_Stream0_IRQHandler                  0x080001b7   Thumb Code     0  startup_stm32f405xx.o(.text)
    DMA1_Stream1_IRQHandler                  0x080001b7   Thumb Code     0  startup_stm32f405xx.o(.text)
    DMA1_Stream2_IRQHandler                  0x080001b7   Thumb Code     0  startup_stm32f405xx.o(.text)
    DMA1_Stream3_IRQHandler                  0x080001b7   Thumb Code     0  startup_stm32f405xx.o(.text)
    DMA1_Stream4_IRQHandler                  0x080001b7   Thumb Code     0  startup_stm32f405xx.o(.text)
    DMA1_Stream5_IRQHandler                  0x080001b7   Thumb Code     0  startup_stm32f405xx.o(.text)
    DMA1_Stream6_IRQHandler                  0x080001b7   Thumb Code     0  startup_stm32f405xx.o(.text)
    DMA1_Stream7_IRQHandler                  0x080001b7   Thumb Code     0  startup_stm32f405xx.o(.text)
    DMA2_Stream1_IRQHandler                  0x080001b7   Thumb Code     0  startup_stm32f405xx.o(.text)
    DMA2_Stream2_IRQHandler                  0x080001b7   Thumb Code     0  startup_stm32f405xx.o(.text)
    DMA2_Stream4_IRQHandler                  0x080001b7   Thumb Code     0  startup_stm32f405xx.o(.text)
    DMA2_Stream5_IRQHandler                  0x080001b7   Thumb Code     0  startup_stm32f405xx.o(.text)
    DMA2_Stream6_IRQHandler                  0x080001b7   Thumb Code     0  startup_stm32f405xx.o(.text)
    DMA2_Stream7_IRQHandler                  0x080001b7   Thumb Code     0  startup_stm32f405xx.o(.text)
    EXTI0_IRQHandler                         0x080001b7   Thumb Code     0  startup_stm32f405xx.o(.text)
    EXTI1_IRQHandler                         0x080001b7   Thumb Code     0  startup_stm32f405xx.o(.text)
    EXTI2_IRQHandler                         0x080001b7   Thumb Code     0  startup_stm32f405xx.o(.text)
    EXTI9_5_IRQHandler                       0x080001b7   Thumb Code     0  startup_stm32f405xx.o(.text)
    FLASH_IRQHandler                         0x080001b7   Thumb Code     0  startup_stm32f405xx.o(.text)
    FMC_IRQHandler                           0x080001b7   Thumb Code     0  startup_stm32f405xx.o(.text)
    FPU_IRQHandler                           0x080001b7   Thumb Code     0  startup_stm32f405xx.o(.text)
    HASH_RNG_IRQHandler                      0x080001b7   Thumb Code     0  startup_stm32f405xx.o(.text)
    I2C1_ER_IRQHandler                       0x080001b7   Thumb Code     0  startup_stm32f405xx.o(.text)
    I2C1_EV_IRQHandler                       0x080001b7   Thumb Code     0  startup_stm32f405xx.o(.text)
    I2C2_ER_IRQHandler                       0x080001b7   Thumb Code     0  startup_stm32f405xx.o(.text)
    I2C2_EV_IRQHandler                       0x080001b7   Thumb Code     0  startup_stm32f405xx.o(.text)
    I2C3_ER_IRQHandler                       0x080001b7   Thumb Code     0  startup_stm32f405xx.o(.text)
    I2C3_EV_IRQHandler                       0x080001b7   Thumb Code     0  startup_stm32f405xx.o(.text)
    OTG_FS_IRQHandler                        0x080001b7   Thumb Code     0  startup_stm32f405xx.o(.text)
    OTG_FS_WKUP_IRQHandler                   0x080001b7   Thumb Code     0  startup_stm32f405xx.o(.text)
    OTG_HS_EP1_IN_IRQHandler                 0x080001b7   Thumb Code     0  startup_stm32f405xx.o(.text)
    OTG_HS_EP1_OUT_IRQHandler                0x080001b7   Thumb Code     0  startup_stm32f405xx.o(.text)
    OTG_HS_IRQHandler                        0x080001b7   Thumb Code     0  startup_stm32f405xx.o(.text)
    OTG_HS_WKUP_IRQHandler                   0x080001b7   Thumb Code     0  startup_stm32f405xx.o(.text)
    PVD_IRQHandler                           0x080001b7   Thumb Code     0  startup_stm32f405xx.o(.text)
    RCC_IRQHandler                           0x080001b7   Thumb Code     0  startup_stm32f405xx.o(.text)
    RTC_Alarm_IRQHandler                     0x080001b7   Thumb Code     0  startup_stm32f405xx.o(.text)
    RTC_WKUP_IRQHandler                      0x080001b7   Thumb Code     0  startup_stm32f405xx.o(.text)
    SDIO_IRQHandler                          0x080001b7   Thumb Code     0  startup_stm32f405xx.o(.text)
    SPI1_IRQHandler                          0x080001b7   Thumb Code     0  startup_stm32f405xx.o(.text)
    SPI2_IRQHandler                          0x080001b7   Thumb Code     0  startup_stm32f405xx.o(.text)
    SPI3_IRQHandler                          0x080001b7   Thumb Code     0  startup_stm32f405xx.o(.text)
    TAMP_STAMP_IRQHandler                    0x080001b7   Thumb Code     0  startup_stm32f405xx.o(.text)
    TIM1_BRK_TIM9_IRQHandler                 0x080001b7   Thumb Code     0  startup_stm32f405xx.o(.text)
    TIM1_CC_IRQHandler                       0x080001b7   Thumb Code     0  startup_stm32f405xx.o(.text)
    TIM1_TRG_COM_TIM11_IRQHandler            0x080001b7   Thumb Code     0  startup_stm32f405xx.o(.text)
    TIM1_UP_TIM10_IRQHandler                 0x080001b7   Thumb Code     0  startup_stm32f405xx.o(.text)
    TIM6_DAC_IRQHandler                      0x080001b7   Thumb Code     0  startup_stm32f405xx.o(.text)
    TIM7_IRQHandler                          0x080001b7   Thumb Code     0  startup_stm32f405xx.o(.text)
    TIM8_BRK_TIM12_IRQHandler                0x080001b7   Thumb Code     0  startup_stm32f405xx.o(.text)
    TIM8_CC_IRQHandler                       0x080001b7   Thumb Code     0  startup_stm32f405xx.o(.text)
    TIM8_TRG_COM_TIM14_IRQHandler            0x080001b7   Thumb Code     0  startup_stm32f405xx.o(.text)
    TIM8_UP_TIM13_IRQHandler                 0x080001b7   Thumb Code     0  startup_stm32f405xx.o(.text)
    UART4_IRQHandler                         0x080001b7   Thumb Code     0  startup_stm32f405xx.o(.text)
    UART5_IRQHandler                         0x080001b7   Thumb Code     0  startup_stm32f405xx.o(.text)
    USART1_IRQHandler                        0x080001b7   Thumb Code     0  startup_stm32f405xx.o(.text)
    USART2_IRQHandler                        0x080001b7   Thumb Code     0  startup_stm32f405xx.o(.text)
    USART3_IRQHandler                        0x080001b7   Thumb Code     0  startup_stm32f405xx.o(.text)
    USART6_IRQHandler                        0x080001b7   Thumb Code     0  startup_stm32f405xx.o(.text)
    WWDG_IRQHandler                          0x080001b7   Thumb Code     0  startup_stm32f405xx.o(.text)
    __aeabi_memcpy                           0x080001c1   Thumb Code    36  memcpya.o(.text)
    __aeabi_memcpy4                          0x080001c1   Thumb Code     0  memcpya.o(.text)
    __aeabi_memcpy8                          0x080001c1   Thumb Code     0  memcpya.o(.text)
    __aeabi_dmul                             0x080001e5   Thumb Code   228  dmul.o(.text)
    __aeabi_ddiv                             0x080002c9   Thumb Code   222  ddiv.o(.text)
    __aeabi_i2d                              0x080003a7   Thumb Code    34  dflti.o(.text)
    __aeabi_ui2d                             0x080003c9   Thumb Code    26  dfltui.o(.text)
    __aeabi_d2iz                             0x080003e3   Thumb Code    62  dfixi.o(.text)
    __aeabi_d2uiz                            0x08000421   Thumb Code    50  dfixui.o(.text)
    __aeabi_f2d                              0x08000453   Thumb Code    38  f2d.o(.text)
    __aeabi_d2f                              0x08000479   Thumb Code    56  d2f.o(.text)
    __aeabi_llsr                             0x080004b1   Thumb Code    32  llushr.o(.text)
    _ll_ushift_r                             0x080004b1   Thumb Code     0  llushr.o(.text)
    __I$use$fp                               0x080004d1   Thumb Code     0  iusefp.o(.text)
    _float_round                             0x080004d1   Thumb Code    18  fepilogue.o(.text)
    _float_epilogue                          0x080004e3   Thumb Code    92  fepilogue.o(.text)
    _double_round                            0x0800053f   Thumb Code    30  depilogue.o(.text)
    _double_epilogue                         0x0800055d   Thumb Code   156  depilogue.o(.text)
    __scatterload                            0x080005f9   Thumb Code    28  init.o(.text)
    __scatterload_rt2                        0x080005f9   Thumb Code     0  init.o(.text)
    __aeabi_llsl                             0x0800061d   Thumb Code    30  llshl.o(.text)
    _ll_shift_l                              0x0800061d   Thumb Code     0  llshl.o(.text)
    __decompress                             0x0800063b   Thumb Code     0  __dczerorl2.o(.text)
    __decompress1                            0x0800063b   Thumb Code    86  __dczerorl2.o(.text)
    BusFault_Handler                         0x08000691   Thumb Code     2  stm32f4xx_it.o(i.BusFault_Handler)
    CAN1_RX0_IRQHandler                      0x08000695   Thumb Code   122  stm32f4xx_it.o(i.CAN1_RX0_IRQHandler)
    CAN1_TX_IRQHandler                       0x08000741   Thumb Code     6  stm32f4xx_it.o(i.CAN1_TX_IRQHandler)
    Can_WriteData                            0x08000875   Thumb Code    40  moshicanshu.o(i.Can_WriteData)
    DATDDP                                   0x080008a9   Thumb Code    76  stm32f4xx_hal_msp.o(i.DATDDP)
    DMA2_Stream0_IRQHandler                  0x080008f9   Thumb Code   164  stm32f4xx_it.o(i.DMA2_Stream0_IRQHandler)
    DMA2_Stream3_IRQHandler                  0x080009e5   Thumb Code     6  stm32f4xx_it.o(i.DMA2_Stream3_IRQHandler)
    DebugMon_Handler                         0x08000a95   Thumb Code     2  stm32f4xx_it.o(i.DebugMon_Handler)
    EXTI15_10_IRQHandler                     0x08000a99   Thumb Code   800  stm32f4xx_it.o(i.EXTI15_10_IRQHandler)
    EXTI3_IRQHandler                         0x08000e41   Thumb Code   184  stm32f4xx_it.o(i.EXTI3_IRQHandler)
    EXTI4_IRQHandler                         0x08000f35   Thumb Code    16  stm32f4xx_it.o(i.EXTI4_IRQHandler)
    FW_Fixed_Exec                            0x08000f49   Thumb Code   288  moshicanshu.o(i.FW_Fixed_Exec)
    HAL_CAN_ConfigFilter                     0x08001081   Thumb Code   244  stm32f4xx_hal_can.o(i.HAL_CAN_ConfigFilter)
    HAL_CAN_ErrorCallback                    0x08001179   Thumb Code     2  stm32f4xx_hal_can.o(i.HAL_CAN_ErrorCallback)
    HAL_CAN_IRQHandler                       0x0800117d   Thumb Code   548  stm32f4xx_hal_can.o(i.HAL_CAN_IRQHandler)
    HAL_CAN_Init                             0x080013b1   Thumb Code   328  stm32f4xx_hal_can.o(i.HAL_CAN_Init)
    HAL_CAN_MspInit                          0x080014f9   Thumb Code   220  stm32f4xx_hal_msp.o(i.HAL_CAN_MspInit)
    HAL_CAN_Receive_IT                       0x08001609   Thumb Code   180  stm32f4xx_hal_can.o(i.HAL_CAN_Receive_IT)
    HAL_CAN_RxCpltCallback                   0x080016bd   Thumb Code     2  stm32f4xx_hal_can.o(i.HAL_CAN_RxCpltCallback)
    HAL_CAN_Transmit_IT                      0x080016bf   Thumb Code   292  stm32f4xx_hal_can.o(i.HAL_CAN_Transmit_IT)
    HAL_CAN_TxCpltCallback                   0x080017e3   Thumb Code     2  stm32f4xx_hal_can.o(i.HAL_CAN_TxCpltCallback)
    HAL_DMA_DeInit                           0x080017e5   Thumb Code    86  stm32f4xx_hal_dma.o(i.HAL_DMA_DeInit)
    HAL_DMA_IRQHandler                       0x0800183d   Thumb Code   414  stm32f4xx_hal_dma.o(i.HAL_DMA_IRQHandler)
    HAL_DMA_Init                             0x080019e5   Thumb Code   206  stm32f4xx_hal_dma.o(i.HAL_DMA_Init)
    HAL_DMA_Start_IT                         0x08001ab9   Thumb Code   120  stm32f4xx_hal_dma.o(i.HAL_DMA_Start_IT)
    HAL_GPIO_DeInit                          0x08001b31   Thumb Code   288  stm32f4xx_hal_gpio.o(i.HAL_GPIO_DeInit)
    HAL_GPIO_EXTI_Callback                   0x08001c79   Thumb Code     2  stm32f4xx_hal_gpio.o(i.HAL_GPIO_EXTI_Callback)
    HAL_GPIO_EXTI_IRQHandler                 0x08001c7d   Thumb Code    18  stm32f4xx_hal_gpio.o(i.HAL_GPIO_EXTI_IRQHandler)
    HAL_GPIO_Init                            0x08001c95   Thumb Code   388  stm32f4xx_hal_gpio.o(i.HAL_GPIO_Init)
    HAL_GPIO_ReadPin                         0x08001e45   Thumb Code    10  stm32f4xx_hal_gpio.o(i.HAL_GPIO_ReadPin)
    HAL_GPIO_WritePin                        0x08001e4f   Thumb Code    10  stm32f4xx_hal_gpio.o(i.HAL_GPIO_WritePin)
    HAL_GetTick                              0x08001e59   Thumb Code     6  stm32f4xx_hal.o(i.HAL_GetTick)
    HAL_I2C_GetError                         0x08001e65   Thumb Code     4  stm32f4xx_hal_i2c.o(i.HAL_I2C_GetError)
    HAL_I2C_Init                             0x08001e69   Thumb Code   254  stm32f4xx_hal_i2c.o(i.HAL_I2C_Init)
    HAL_I2C_Mem_Read                         0x08001f71   Thumb Code   496  stm32f4xx_hal_i2c.o(i.HAL_I2C_Mem_Read)
    HAL_I2C_Mem_Write                        0x0800216d   Thumb Code   306  stm32f4xx_hal_i2c.o(i.HAL_I2C_Mem_Write)
    HAL_I2C_MspInit                          0x080022a9   Thumb Code    64  stm32f4xx_hal_msp.o(i.HAL_I2C_MspInit)
    HAL_IncTick                              0x080022f5   Thumb Code    10  stm32f4xx_hal.o(i.HAL_IncTick)
    HAL_Init                                 0x08002305   Thumb Code    48  stm32f4xx_hal.o(i.HAL_Init)
    HAL_InitTick                             0x08002339   Thumb Code    34  stm32f4xx_hal.o(i.HAL_InitTick)
    HAL_MspInit                              0x08002361   Thumb Code    88  stm32f4xx_hal_msp.o(i.HAL_MspInit)
    HAL_NVIC_EnableIRQ                       0x080023b9   Thumb Code    22  stm32f4xx_hal_cortex.o(i.HAL_NVIC_EnableIRQ)
    HAL_NVIC_SetPriority                     0x080023d1   Thumb Code    60  stm32f4xx_hal_cortex.o(i.HAL_NVIC_SetPriority)
    HAL_NVIC_SetPriorityGrouping             0x08002411   Thumb Code    26  stm32f4xx_hal_cortex.o(i.HAL_NVIC_SetPriorityGrouping)
    HAL_RCC_ClockConfig                      0x08002435   Thumb Code   364  stm32f4xx_hal_rcc.o(i.HAL_RCC_ClockConfig)
    HAL_RCC_GetHCLKFreq                      0x080025b1   Thumb Code     6  stm32f4xx_hal_rcc.o(i.HAL_RCC_GetHCLKFreq)
    HAL_RCC_GetPCLK1Freq                     0x080025bd   Thumb Code    34  stm32f4xx_hal_rcc.o(i.HAL_RCC_GetPCLK1Freq)
    HAL_RCC_GetSysClockFreq                  0x080025ed   Thumb Code   104  stm32f4xx_hal_rcc.o(i.HAL_RCC_GetSysClockFreq)
    HAL_RCC_OscConfig                        0x0800265d   Thumb Code   770  stm32f4xx_hal_rcc.o(i.HAL_RCC_OscConfig)
    HAL_SPI_DeInit                           0x08002971   Thumb Code    46  stm32f4xx_hal_spi.o(i.HAL_SPI_DeInit)
    HAL_SPI_ErrorCallback                    0x0800299f   Thumb Code     2  stm32f4xx_hal_spi.o(i.HAL_SPI_ErrorCallback)
    HAL_SPI_Init                             0x080029a1   Thumb Code   128  stm32f4xx_hal_spi.o(i.HAL_SPI_Init)
    HAL_SPI_MspDeInit                        0x08002a21   Thumb Code    48  stm32f4xx_hal_msp.o(i.HAL_SPI_MspDeInit)
    HAL_SPI_MspInit                          0x08002a5d   Thumb Code   176  stm32f4xx_hal_msp.o(i.HAL_SPI_MspInit)
    HAL_SPI_RxCpltCallback                   0x08002b41   Thumb Code     2  stm32f4xx_hal_spi.o(i.HAL_SPI_RxCpltCallback)
    HAL_SPI_RxHalfCpltCallback               0x08002b43   Thumb Code     2  stm32f4xx_hal_spi.o(i.HAL_SPI_RxHalfCpltCallback)
    HAL_SPI_TransmitReceive_DMA              0x08002b45   Thumb Code   242  stm32f4xx_hal_spi.o(i.HAL_SPI_TransmitReceive_DMA)
    HAL_SPI_TxRxCpltCallback                 0x08002c4d   Thumb Code     2  stm32f4xx_hal_spi.o(i.HAL_SPI_TxRxCpltCallback)
    HAL_SPI_TxRxHalfCpltCallback             0x08002c4f   Thumb Code     2  stm32f4xx_hal_spi.o(i.HAL_SPI_TxRxHalfCpltCallback)
    HAL_SYSTICK_CLKSourceConfig              0x08002c51   Thumb Code    24  stm32f4xx_hal_cortex.o(i.HAL_SYSTICK_CLKSourceConfig)
    HAL_SYSTICK_Callback                     0x08002c69   Thumb Code     2  stm32f4xx_hal_cortex.o(i.HAL_SYSTICK_Callback)
    HAL_SYSTICK_Config                       0x08002c6b   Thumb Code    40  stm32f4xx_hal_cortex.o(i.HAL_SYSTICK_Config)
    HAL_SYSTICK_IRQHandler                   0x08002c93   Thumb Code     8  stm32f4xx_hal_cortex.o(i.HAL_SYSTICK_IRQHandler)
    HAL_TIMEx_BreakCallback                  0x08002c9b   Thumb Code     2  stm32f4xx_hal_tim_ex.o(i.HAL_TIMEx_BreakCallback)
    HAL_TIMEx_CommutationCallback            0x08002c9d   Thumb Code     2  stm32f4xx_hal_tim_ex.o(i.HAL_TIMEx_CommutationCallback)
    HAL_TIMEx_MasterConfigSynchronization    0x08002c9f   Thumb Code    80  stm32f4xx_hal_tim_ex.o(i.HAL_TIMEx_MasterConfigSynchronization)
    HAL_TIM_Base_Init                        0x08002cef   Thumb Code    54  stm32f4xx_hal_tim.o(i.HAL_TIM_Base_Init)
    HAL_TIM_Base_MspInit                     0x08002d25   Thumb Code    96  stm32f4xx_hal_msp.o(i.HAL_TIM_Base_MspInit)
    HAL_TIM_Base_Start_IT                    0x08002d95   Thumb Code    24  stm32f4xx_hal_tim.o(i.HAL_TIM_Base_Start_IT)
    HAL_TIM_ConfigClockSource                0x08002dad   Thumb Code   242  stm32f4xx_hal_tim.o(i.HAL_TIM_ConfigClockSource)
    HAL_TIM_IC_CaptureCallback               0x08002e9f   Thumb Code     2  stm32f4xx_hal_tim.o(i.HAL_TIM_IC_CaptureCallback)
    HAL_TIM_IRQHandler                       0x08002ea1   Thumb Code   358  stm32f4xx_hal_tim.o(i.HAL_TIM_IRQHandler)
    HAL_TIM_OC_DelayElapsedCallback          0x08003007   Thumb Code     2  stm32f4xx_hal_tim.o(i.HAL_TIM_OC_DelayElapsedCallback)
    HAL_TIM_PWM_PulseFinishedCallback        0x08003009   Thumb Code     2  stm32f4xx_hal_tim.o(i.HAL_TIM_PWM_PulseFinishedCallback)
    HAL_TIM_PeriodElapsedCallback            0x0800300b   Thumb Code     2  stm32f4xx_hal_tim.o(i.HAL_TIM_PeriodElapsedCallback)
    HAL_TIM_TriggerCallback                  0x0800300d   Thumb Code     2  stm32f4xx_hal_tim.o(i.HAL_TIM_TriggerCallback)
    HX530_Senddata                           0x08003011   Thumb Code   254  stm32f4xx_hal_msp.o(i.HX530_Senddata)
    HX530_readdata                           0x08003115   Thumb Code   224  stm32f4xx_hal_msp.o(i.HX530_readdata)
    H_Xy_fan                                 0x08003205   Thumb Code    74  moshicanshu.o(i.H_Xy_fan)
    HardFault_Handler                        0x08003281   Thumb Code     2  stm32f4xx_it.o(i.HardFault_Handler)
    HuanFan                                  0x08003285   Thumb Code   132  stm32f4xx_it.o(i.HuanFan)
    MX_TIM2_SET                              0x080039d5   Thumb Code    30  main.o(i.MX_TIM2_SET)
    MX_TIM3_SET                              0x08003a4d   Thumb Code    28  main.o(i.MX_TIM3_SET)
    MX_TIM4_SET                              0x08003ac5   Thumb Code    28  main.o(i.MX_TIM4_SET)
    MX_TIM5_SET                              0x08003b41   Thumb Code    28  main.o(i.MX_TIM5_SET)
    MemManage_Handler                        0x08003b65   Thumb Code     2  stm32f4xx_it.o(i.MemManage_Handler)
    NMI_Handler                              0x08003b67   Thumb Code     2  stm32f4xx_it.o(i.NMI_Handler)
    PendSV_Handler                           0x08003b89   Thumb Code     2  stm32f4xx_it.o(i.PendSV_Handler)
    RD_AM8192                                0x08003b8d   Thumb Code    70  stm32f4xx_it.o(i.RD_AM8192)
    Read1_AM8192                             0x08003be5   Thumb Code    80  stm32f4xx_it.o(i.Read1_AM8192)
    Read_AM8192                              0x08003c39   Thumb Code    86  stm32f4xx_it.o(i.Read_AM8192)
    SVC_Handler                              0x08003e23   Thumb Code     2  stm32f4xx_it.o(i.SVC_Handler)
    SysTick_Handler                          0x08003e25   Thumb Code  4542  stm32f4xx_it.o(i.SysTick_Handler)
    SystemClock_Config                       0x0800508d   Thumb Code   148  main.o(i.SystemClock_Config)
    SystemInit                               0x08005129   Thumb Code    66  system_stm32f4xx.o(i.SystemInit)
    TIM2_IRQHandler                          0x0800517d   Thumb Code   616  stm32f4xx_it.o(i.TIM2_IRQHandler)
    TIM3_IRQHandler                          0x08005459   Thumb Code   160  stm32f4xx_it.o(i.TIM3_IRQHandler)
    TIM4_IRQHandler                          0x08005525   Thumb Code   144  stm32f4xx_it.o(i.TIM4_IRQHandler)
    TIM5_IRQHandler                          0x080055d1   Thumb Code    90  stm32f4xx_it.o(i.TIM5_IRQHandler)
    TIM_Base_SetConfig                       0x08005641   Thumb Code   148  stm32f4xx_hal_tim.o(i.TIM_Base_SetConfig)
    UsageFault_Handler                       0x0800576b   Thumb Code     2  stm32f4xx_it.o(i.UsageFault_Handler)
    XJ_ext                                   0x0800576d   Thumb Code    32  stm32f4xx_it.o(i.XJ_ext)
    Z_H_SaoMiao                              0x08005795   Thumb Code   228  stm32f4xx_it.o(i.Z_H_SaoMiao)
    _Error_Handler                           0x08005899   Thumb Code     2  main.o(i._Error_Handler)
    __scatterload_copy                       0x0800589b   Thumb Code    14  handlers.o(i.__scatterload_copy)
    __scatterload_null                       0x080058a9   Thumb Code     2  handlers.o(i.__scatterload_null)
    __scatterload_zeroinit                   0x080058ab   Thumb Code    14  handlers.o(i.__scatterload_zeroinit)
    allfwei                                  0x080058b9   Thumb Code   162  stm32f4xx_it.o(i.allfwei)
    chk_kuaifan_24                           0x08005961   Thumb Code    52  stm32f4xx_it.o(i.chk_kuaifan_24)
    chk_mowan                                0x0800599d   Thumb Code    52  stm32f4xx_it.o(i.chk_mowan)
    clr_8192_RD                              0x080059d9   Thumb Code    38  moshicanshu.o(i.clr_8192_RD)
    clr_f8                                   0x08005a05   Thumb Code    60  moshicanshu.o(i.clr_f8)
    dpdatclr                                 0x08005a45   Thumb Code    76  moshicanshu.o(i.dpdatclr)
    excfanwei_STOP                           0x08005a95   Thumb Code   138  moshicanshu.o(i.excfanwei_STOP)
    excomm_QJkz                              0x08005b5d   Thumb Code    18  moshicanshu.o(i.excomm_QJkz)
    exczsfanwei_BJ                           0x08005b79   Thumb Code    32  moshicanshu.o(i.exczsfanwei_BJ)
    exczsfanwei_ST                           0x08005ba9   Thumb Code    22  moshicanshu.o(i.exczsfanwei_ST)
    exppfw                                   0x08005bc9   Thumb Code   164  moshicanshu.o(i.exppfw)
    fanchafanweixiabiao                      0x08005cad   Thumb Code    24  moshicanshu.o(i.fanchafanweixiabiao)
    fweipandin                               0x08005cc9   Thumb Code    14  moshicanshu.o(i.fweipandin)
    jsfxwz                                   0x08005cdd   Thumb Code    46  moshicanshu.o(i.jsfxwz)
    main                                     0x08005d0d   Thumb Code  3742  main.o(i.main)
    setfanwei                                0x08006bcd   Thumb Code    30  main.o(i.setfanwei)
    smypfwei                                 0x08006bf1   Thumb Code   296  stm32f4xx_it.o(i.smypfwei)
    AHBPrescTable                            0x08006d2c   Data          16  system_stm32f4xx.o(.constdata)
    APBPrescTable                            0x08006d3c   Data           8  system_stm32f4xx.o(.constdata)
    pm4p1                                    0x08006d44   Data          17  moshicanshu.o(.constdata)
    fan_wei_24                               0x08006d56   Data          50  moshicanshu.o(.constdata)
    p401                                     0x08006d88   Data           8  moshicanshu.o(.constdata)
    p402                                     0x08006d90   Data           8  moshicanshu.o(.constdata)
    p403                                     0x08006d98   Data           8  moshicanshu.o(.constdata)
    p404                                     0x08006da0   Data           8  moshicanshu.o(.constdata)
    p405                                     0x08006da8   Data           8  moshicanshu.o(.constdata)
    p406                                     0x08006db0   Data           8  moshicanshu.o(.constdata)
    p407                                     0x08006db8   Data           8  moshicanshu.o(.constdata)
    p408                                     0x08006dc0   Data           8  moshicanshu.o(.constdata)
    p409                                     0x08006dc8   Data           8  moshicanshu.o(.constdata)
    p410                                     0x08006dd0   Data           8  moshicanshu.o(.constdata)
    p411                                     0x08006dd8   Data           8  moshicanshu.o(.constdata)
    p412                                     0x08006de0   Data           8  moshicanshu.o(.constdata)
    p413                                     0x08006de8   Data           8  moshicanshu.o(.constdata)
    p414                                     0x08006df0   Data           8  moshicanshu.o(.constdata)
    p415                                     0x08006df8   Data           8  moshicanshu.o(.constdata)
    p416                                     0x08006e00   Data           8  moshicanshu.o(.constdata)
    p4101                                    0x08006e08   Data           5  moshicanshu.o(.constdata)
    p4102                                    0x08006e0d   Data           5  moshicanshu.o(.constdata)
    p4103                                    0x08006e12   Data           6  moshicanshu.o(.constdata)
    p4104                                    0x08006e18   Data           5  moshicanshu.o(.constdata)
    p4105                                    0x08006e1d   Data           6  moshicanshu.o(.constdata)
    p4106                                    0x08006e23   Data           5  moshicanshu.o(.constdata)
    p4107                                    0x08006e28   Data           5  moshicanshu.o(.constdata)
    p4108                                    0x08006e2d   Data           6  moshicanshu.o(.constdata)
    p4109                                    0x08006e33   Data           6  moshicanshu.o(.constdata)
    p4110                                    0x08006e39   Data           5  moshicanshu.o(.constdata)
    p4111                                    0x08006e3e   Data           6  moshicanshu.o(.constdata)
    p4112                                    0x08006e44   Data           5  moshicanshu.o(.constdata)
    p4113                                    0x08006e49   Data           5  moshicanshu.o(.constdata)
    p4114                                    0x08006e4e   Data           5  moshicanshu.o(.constdata)
    p4115                                    0x08006e53   Data           5  moshicanshu.o(.constdata)
    p4116                                    0x08006e58   Data           6  moshicanshu.o(.constdata)
    p4201                                    0x08006e5e   Data           5  moshicanshu.o(.constdata)
    p4202                                    0x08006e63   Data           5  moshicanshu.o(.constdata)
    p4203                                    0x08006e68   Data           5  moshicanshu.o(.constdata)
    p4204                                    0x08006e6d   Data           5  moshicanshu.o(.constdata)
    p4205                                    0x08006e72   Data           5  moshicanshu.o(.constdata)
    p4206                                    0x08006e77   Data           6  moshicanshu.o(.constdata)
    p4207                                    0x08006e7d   Data           6  moshicanshu.o(.constdata)
    p4208                                    0x08006e83   Data           6  moshicanshu.o(.constdata)
    p4209                                    0x08006e89   Data           6  moshicanshu.o(.constdata)
    p4210                                    0x08006e8f   Data           6  moshicanshu.o(.constdata)
    p4211                                    0x08006e95   Data           6  moshicanshu.o(.constdata)
    p4212                                    0x08006e9b   Data           5  moshicanshu.o(.constdata)
    p4213                                    0x08006ea0   Data           5  moshicanshu.o(.constdata)
    p4214                                    0x08006ea5   Data           5  moshicanshu.o(.constdata)
    p4215                                    0x08006eaa   Data           5  moshicanshu.o(.constdata)
    p4216                                    0x08006eaf   Data           6  moshicanshu.o(.constdata)
    p4301                                    0x08006eb5   Data           5  moshicanshu.o(.constdata)
    p4302                                    0x08006eba   Data           5  moshicanshu.o(.constdata)
    p4303                                    0x08006ebf   Data           6  moshicanshu.o(.constdata)
    p4304                                    0x08006ec5   Data           6  moshicanshu.o(.constdata)
    p4305                                    0x08006ecb   Data           6  moshicanshu.o(.constdata)
    p4306                                    0x08006ed1   Data           6  moshicanshu.o(.constdata)
    p4307                                    0x08006ed7   Data           6  moshicanshu.o(.constdata)
    p4308                                    0x08006edd   Data           5  moshicanshu.o(.constdata)
    p4309                                    0x08006ee2   Data           5  moshicanshu.o(.constdata)
    p4310                                    0x08006ee7   Data           5  moshicanshu.o(.constdata)
    p4311                                    0x08006eec   Data           5  moshicanshu.o(.constdata)
    p4312                                    0x08006ef1   Data           5  moshicanshu.o(.constdata)
    p4313                                    0x08006ef6   Data           5  moshicanshu.o(.constdata)
    p4314                                    0x08006efb   Data           5  moshicanshu.o(.constdata)
    p4315                                    0x08006f00   Data           5  moshicanshu.o(.constdata)
    p4316                                    0x08006f05   Data           5  moshicanshu.o(.constdata)
    p201                                     0x08006f0a   Data           9  moshicanshu.o(.constdata)
    p202                                     0x08006f13   Data           9  moshicanshu.o(.constdata)
    p203                                     0x08006f1c   Data           9  moshicanshu.o(.constdata)
    p204                                     0x08006f25   Data           9  moshicanshu.o(.constdata)
    p205                                     0x08006f2e   Data           9  moshicanshu.o(.constdata)
    p206                                     0x08006f37   Data           9  moshicanshu.o(.constdata)
    p207                                     0x08006f40   Data           9  moshicanshu.o(.constdata)
    p208                                     0x08006f49   Data           9  moshicanshu.o(.constdata)
    p209                                     0x08006f52   Data           9  moshicanshu.o(.constdata)
    p210                                     0x08006f5b   Data           9  moshicanshu.o(.constdata)
    p211                                     0x08006f64   Data           9  moshicanshu.o(.constdata)
    p212                                     0x08006f6d   Data           9  moshicanshu.o(.constdata)
    p213                                     0x08006f76   Data           9  moshicanshu.o(.constdata)
    p214                                     0x08006f7f   Data           9  moshicanshu.o(.constdata)
    p215                                     0x08006f88   Data           9  moshicanshu.o(.constdata)
    p216                                     0x08006f91   Data           9  moshicanshu.o(.constdata)
    p2101                                    0x08006f9a   Data           9  moshicanshu.o(.constdata)
    p2102                                    0x08006fa3   Data           9  moshicanshu.o(.constdata)
    p2103                                    0x08006fac   Data           9  moshicanshu.o(.constdata)
    p2104                                    0x08006fb5   Data           9  moshicanshu.o(.constdata)
    p2105                                    0x08006fbe   Data           9  moshicanshu.o(.constdata)
    p2106                                    0x08006fc7   Data           9  moshicanshu.o(.constdata)
    p2107                                    0x08006fd0   Data           9  moshicanshu.o(.constdata)
    p2108                                    0x08006fd9   Data           9  moshicanshu.o(.constdata)
    p2109                                    0x08006fe2   Data           9  moshicanshu.o(.constdata)
    p2110                                    0x08006feb   Data           9  moshicanshu.o(.constdata)
    p2111                                    0x08006ff4   Data           9  moshicanshu.o(.constdata)
    p2112                                    0x08006ffd   Data           9  moshicanshu.o(.constdata)
    p2113                                    0x08007006   Data           9  moshicanshu.o(.constdata)
    p2114                                    0x0800700f   Data           9  moshicanshu.o(.constdata)
    p2115                                    0x08007018   Data           9  moshicanshu.o(.constdata)
    p2116                                    0x08007021   Data           9  moshicanshu.o(.constdata)
    p301                                     0x0800702a   Data           3  moshicanshu.o(.constdata)
    p302                                     0x0800702d   Data           3  moshicanshu.o(.constdata)
    p303                                     0x08007030   Data           9  moshicanshu.o(.constdata)
    p304                                     0x08007039   Data           9  moshicanshu.o(.constdata)
    p305                                     0x08007042   Data           3  moshicanshu.o(.constdata)
    p306                                     0x08007045   Data           3  moshicanshu.o(.constdata)
    p307                                     0x08007048   Data           3  moshicanshu.o(.constdata)
    p308                                     0x0800704b   Data           9  moshicanshu.o(.constdata)
    p309                                     0x08007054   Data           9  moshicanshu.o(.constdata)
    p310                                     0x0800705d   Data           3  moshicanshu.o(.constdata)
    p311                                     0x08007060   Data           3  moshicanshu.o(.constdata)
    p312                                     0x08007063   Data           3  moshicanshu.o(.constdata)
    p313                                     0x08007066   Data           9  moshicanshu.o(.constdata)
    p314                                     0x0800706f   Data           9  moshicanshu.o(.constdata)
    p315                                     0x08007078   Data           3  moshicanshu.o(.constdata)
    p316                                     0x0800707b   Data           3  moshicanshu.o(.constdata)
    Region$$Table$$Base                      0x08007080   Number         0  anon$$obj.o(Region$$Table)
    Region$$Table$$Limit                     0x080070a0   Number         0  anon$$obj.o(Region$$Table)
    uwTick                                   0x20000000   Data           4  stm32f4xx_hal.o(.data)
    SystemCoreClock                          0x20000004   Data           4  system_stm32f4xx.o(.data)
    dchuli_sw                                0x20000008   Data           1  main.o(.data)
    QJJX_sw                                  0x20000009   Data           1  main.o(.data)
    QJ_STAR                                  0x2000000a   Data           1  main.o(.data)
    Run_MS                                   0x2000000c   Data           1  main.o(.data)
    Run_fanwei                               0x2000000d   Data           1  main.o(.data)
    DMA_RES                                  0x2000000e   Data           1  main.o(.data)
    BD_IN_OUT                                0x2000000f   Data           1  main.o(.data)
    AM8192_WD                                0x20000010   Data           1  main.o(.data)
    TaoTong_JC                               0x20000011   Data           1  main.o(.data)
    RUN_ST                                   0x20000012   Data           1  main.o(.data)
    RUN_out                                  0x20000013   Data           1  main.o(.data)
    Run_KeyCMD                               0x20000014   Data           1  main.o(.data)
    DMA_Key_EN                               0x20000015   Data           1  main.o(.data)
    Key_one                                  0x20000016   Data           1  main.o(.data)
    XJ_setp                                  0x20000017   Data           1  main.o(.data)
    XJ_stop                                  0x20000018   Data           1  main.o(.data)
    PG_JG_sw                                 0x20000019   Data           1  main.o(.data)
    EP_HOME                                  0x2000001a   Data           1  main.o(.data)
    EP_ense                                  0x2000001b   Data           1  main.o(.data)
    EP_stop                                  0x2000001c   Data           1  main.o(.data)
    XT_reset                                 0x2000001d   Data           1  main.o(.data)
    TS_SP_zt                                 0x2000001e   Data           1  main.o(.data)
    TS_RD_en                                 0x2000001f   Data           1  main.o(.data)
    SET_BDen                                 0x20000020   Data           1  main.o(.data)
    BD_en                                    0x20000021   Data           1  main.o(.data)
    EP_en                                    0x20000022   Data           1  main.o(.data)
    shitouleixin                             0x20000023   Data           1  main.o(.data)
    TiaoFan_en                               0x20000024   Data           1  main.o(.data)
    MF_ST                                    0x20000025   Data           1  main.o(.data)
    MF_mode                                  0x20000026   Data           1  main.o(.data)
    GD_DW_mode                               0x20000027   Data           1  main.o(.data)
    DW_fanshu                                0x20000028   Data           1  main.o(.data)
    SET_PX                                   0x20000029   Data           1  main.o(.data)
    ZSFW_dp                                  0x2000002a   Data           1  main.o(.data)
    FanWei_XB                                0x2000002b   Data           1  main.o(.data)
    f8_f16                                   0x2000002c   Data           1  main.o(.data)
    en_8f                                    0x2000002d   Data           1  main.o(.data)
    en_16f                                   0x2000002e   Data           1  main.o(.data)
    DP_tim_sw                                0x2000002f   Data           1  main.o(.data)
    CHF_DDP_ERROR                            0x20000030   Data           1  main.o(.data)
    FW_XiaBiao                               0x20000031   Data           1  main.o(.data)
    SW_JG_PG_mode                            0x20000032   Data           1  main.o(.data)
    xs_sw                                    0x20000033   Data           1  main.o(.data)
    BD_Maxsetp                               0x20000034   Data           2  main.o(.data)
    BD_spu                                   0x20000036   Data           2  main.o(.data)
    BD_Minsetp                               0x20000038   Data           2  main.o(.data)
    BD_SHC                                   0x2000003a   Data           2  main.o(.data)
    XJ_equ                                   0x2000003c   Data           2  main.o(.data)
    EP_equ                                   0x2000003e   Data           2  main.o(.data)
    XJ_YL_kz                                 0x20000040   Data           2  main.o(.data)
    START_JD                                 0x20000042   Data           2  main.o(.data)
    bushu_dat                                0x20000044   Data           4  main.o(.data)
    js_mc                                    0x20000048   Data           4  main.o(.data)
    GD_cankao                                0x2000004c   Data           4  main.o(.data)
    XJ_bjdat                                 0x20000050   Data           4  main.o(.data)
    EP_bjdat                                 0x20000054   Data           4  main.o(.data)
    EP_JS_dat                                0x20000058   Data           4  main.o(.data)
    EP_GD_dat                                0x2000005c   Data           4  main.o(.data)
    BD_bjdat                                 0x20000060   Data           4  main.o(.data)
    DP_HMS_dat                               0x20000064   Data           4  main.o(.data)
    BD_JS_dat                                0x20000068   Data           4  main.o(.data)
    BD_RUN                                   0x2000006c   Data           4  main.o(.data)
    BD_JS_DATT                               0x20000070   Data           4  main.o(.data)
    RD_SD_dat                                0x20000074   Data           6  main.o(.data)
    CAN_RX                                   0x2000007c   Data           8  main.o(.data)
    CAN_TX                                   0x20000084   Data           8  main.o(.data)
    AM8192_UM                                0x2000008c   Data           6  main.o(.data)
    AM8192_CP                                0x20000092   Data           2  main.o(.data)
    AM8192_DAT                               0x20000094   Data           4  main.o(.data)
    AM8192_STOP                              0x20000098   Data           4  main.o(.data)
    H_F_STOP_GD                              0x2000009c   Data           4  main.o(.data)
    AM8192_CS                                0x200000a0   Data           1  main.o(.data)
    BD_cnc                                   0x200000a1   Data           1  main.o(.data)
    H_F_check                                0x200000a2   Data           1  main.o(.data)
    XJ_en                                    0x200000a3   Data           1  main.o(.data)
    GD_CHA_IN                                0x200000a4   Data           4  main.o(.data)
    GD_CHA_OUT                               0x200000a8   Data           4  main.o(.data)
    START                                    0x200000ac   Data           1  main.o(.data)
    FW_Fixed                                 0x200000ad   Data           1  main.o(.data)
    FW_setp                                  0x200000ae   Data           1  main.o(.data)
    FW_stop                                  0x200000af   Data           1  main.o(.data)
    TS_RD_wz                                 0x200000b0   Data           1  main.o(.data)
    BD_setp                                  0x200000b1   Data           1  main.o(.data)
    BD_stop                                  0x200000b2   Data           1  main.o(.data)
    CF_tim                                   0x200000b3   Data           1  main.o(.data)
    DF_tim_en                                0x200000b4   Data           1  main.o(.data)
    EP_offset                                0x200000b5   Data           1  main.o(.data)
    auto_YL_ts                               0x200000b6   Data           1  main.o(.data)
    KS_XJ_en                                 0x200000b7   Data           1  main.o(.data)
    MS_Auto                                  0x200000b8   Data           1  main.o(.data)
    COMM_CF                                  0x200000b9   Data           1  main.o(.data)
    tiaofan_enp                              0x200000ba   Data           1  main.o(.data)
    f16_end                                  0x200000bb   Data           1  main.o(.data)
    f8_end                                   0x200000bc   Data           1  main.o(.data)
    Stop_en                                  0x200000bd   Data           1  main.o(.data)
    FW_equ                                   0x200000be   Data           2  main.o(.data)
    BD_equ                                   0x200000c0   Data           2  main.o(.data)
    CF_time                                  0x200000c2   Data           2  main.o(.data)
    tx_fanwei_tim                            0x200000c4   Data           2  main.o(.data)
    YL_dat                                   0x200000c8   Data           4  main.o(.data)
    YL_tnp                                   0x200000cc   Data           4  main.o(.data)
    XJ_js_dat                                0x200000d0   Data           4  main.o(.data)
    YL_max                                   0x200000d4   Data           4  main.o(.data)
    YL_min                                   0x200000d8   Data           4  main.o(.data)
    XJ_bjs                                   0x200000dc   Data           4  main.o(.data)
    Read_buj_um                              0x200000e0   Data           2  main.o(.data)
    QJ_data                                  0x200000e2   Data           2  main.o(.data)
    offset_shangwei                          0x200000e4   Data           2  main.o(.data)
    offset_xiawei                            0x200000e6   Data           2  main.o(.data)
    XJ_Read_dat                              0x200000e8   Data           4  main.o(.data)
    DP_DMS_dat                               0x200000ec   Data           4  main.o(.data)
    FW_bjdat                                 0x200000f0   Data           4  main.o(.data)
    min_SD_dat                               0x200000f4   Data           2  main.o(.data)
    FW_tracking                              0x200000f6   Data           1  main.o(.data)
    FW_tracking_STOP                         0x200000f7   Data           1  main.o(.data)
    F_W_AM8192_DAT                           0x200000f8   Data           2  main.o(.data)
    F_W_AM8192_SET                           0x200000fa   Data           2  main.o(.data)
    Read_dat_en                              0x200000fc   Data           1  main.o(.data)
    TS_tx_en                                 0x200000fd   Data           1  main.o(.data)
    RD_ens                                   0x200000fe   Data           1  main.o(.data)
    TMP1                                     0x200000ff   Data           1  main.o(.data)
    CF_int_js                                0x20000100   Data           1  main.o(.data)
    shangwei_BZ                              0x20000101   Data           1  main.o(.data)
    xiawei_BZ                                0x20000102   Data           1  main.o(.data)
    BD_OPD                                   0x20000104   Data           2  main.o(.data)
    BD_home                                  0x20000106   Data           1  main.o(.data)
    ylcunwz                                  0x20000108   Data           1  stm32f4xx_hal_msp.o(.data)
    tmpp                                     0x2000010c   Data           4  stm32f4xx_hal_msp.o(.data)
    tenp                                     0x20000110   Data           1  stm32f4xx_it.o(.data)
    tmpd                                     0x20000111   Data           1  stm32f4xx_it.o(.data)
    tmpc                                     0x20000112   Data           1  stm32f4xx_it.o(.data)
    XT_IncTick                               0x20000113   Data           1  stm32f4xx_it.o(.data)
    AM8192_RD_time                           0x20000114   Data           1  stm32f4xx_it.o(.data)
    QT_SD_tim                                0x20000115   Data           1  stm32f4xx_it.o(.data)
    Run_tim                                  0x20000116   Data           1  stm32f4xx_it.o(.data)
    RD_jshu                                  0x20000117   Data           1  stm32f4xx_it.o(.data)
    EP_one                                   0x20000118   Data           1  stm32f4xx_it.o(.data)
    tx_tim                                   0x20000119   Data           1  stm32f4xx_it.o(.data)
    TaoTong_JC_js                            0x2000011a   Data           1  stm32f4xx_it.o(.data)
    Read_tim                                 0x2000011c   Data           2  stm32f4xx_it.o(.data)
    cpmm                                     0x2000011e   Data           2  stm32f4xx_it.o(.data)
    yli_dat                                  0x20000120   Data           4  stm32f4xx_it.o(.data)
    P41                                      0x20000124   Data          64  moshicanshu.o(.data)
    P42                                      0x20000164   Data          64  moshicanshu.o(.data)
    P43                                      0x200001a4   Data          64  moshicanshu.o(.data)
    P44                                      0x200001e4   Data          64  moshicanshu.o(.data)
    P21                                      0x20000224   Data          64  moshicanshu.o(.data)
    P22                                      0x20000264   Data          64  moshicanshu.o(.data)
    P31                                      0x200002a4   Data          64  moshicanshu.o(.data)
    P32                                      0x200002e4   Data          64  moshicanshu.o(.data)
    PS                                       0x20000324   Data          32  moshicanshu.o(.data)
    ROM_Data                                 0x20000344   Data         128  main.o(.bss)
    DMA_TX                                   0x200003c4   Data         512  main.o(.bss)
    DMA_RX                                   0x200005c4   Data         510  main.o(.bss)
    hcan1                                    0x200007c4   Data          68  main.o(.bss)
    hi2c2                                    0x20000808   Data          84  main.o(.bss)
    hspi1                                    0x2000085c   Data          88  main.o(.bss)
    htim2                                    0x200008b4   Data          60  main.o(.bss)
    htim3                                    0x200008f0   Data          60  main.o(.bss)
    htim4                                    0x2000092c   Data          60  main.o(.bss)
    htim5                                    0x20000968   Data          60  main.o(.bss)
    Fan_Set                                  0x200009a4   Data          16  main.o(.bss)
    AM8192_R                                 0x200009b4   Data         384  main.o(.bss)
    fanwei_data                              0x20000b34   Data        3648  main.o(.bss)
    hdma_spi1_rx                             0x20001974   Data          96  main.o(.bss)
    hdma_spi1_tx                             0x200019d4   Data          96  main.o(.bss)
    TxMessage                                0x20001a34   Data          28  main.o(.bss)
    RxMessage                                0x20001a50   Data          36  main.o(.bss)
    ts_shupin                                0x20001a74   Data          48  main.o(.bss)
    yldat                                    0x20001aa4   Data          40  stm32f4xx_hal_msp.o(.bss)
    __initial_sp                             0x200021d0   Data           0  startup_stm32f405xx.o(STACK)



==============================================================================

Memory Map of the image

  Image Entry point : 0x08000189

  Load Region LR_IROM1 (Base: 0x08000000, Size: 0x000073e4, Max: 0x00100000, ABSOLUTE, COMPRESSED[0x0000721c])

    Execution Region ER_IROM1 (Exec base: 0x08000000, Load base: 0x08000000, Size: 0x000070a0, Max: 0x00100000, ABSOLUTE)

    Exec Addr    Load Addr    Size         Type   Attr      Idx    E Section Name        Object

    0x08000000   0x08000000   0x00000188   Data   RO         2889    RESET               startup_stm32f405xx.o
    0x08000188   0x08000188   0x00000000   Code   RO         3873  * .ARM.Collect$$$$00000000  mc_w.l(entry.o)
    0x08000188   0x08000188   0x00000004   Code   RO         3896    .ARM.Collect$$$$00000001  mc_w.l(entry2.o)
    0x0800018c   0x0800018c   0x00000004   Code   RO         3899    .ARM.Collect$$$$00000004  mc_w.l(entry5.o)
    0x08000190   0x08000190   0x00000000   Code   RO         3901    .ARM.Collect$$$$00000008  mc_w.l(entry7b.o)
    0x08000190   0x08000190   0x00000000   Code   RO         3903    .ARM.Collect$$$$0000000A  mc_w.l(entry8b.o)
    0x08000190   0x08000190   0x00000008   Code   RO         3904    .ARM.Collect$$$$0000000B  mc_w.l(entry9a.o)
    0x08000198   0x08000198   0x00000000   Code   RO         3906    .ARM.Collect$$$$0000000D  mc_w.l(entry10a.o)
    0x08000198   0x08000198   0x00000000   Code   RO         3908    .ARM.Collect$$$$0000000F  mc_w.l(entry11a.o)
    0x08000198   0x08000198   0x00000004   Code   RO         3897    .ARM.Collect$$$$00002712  mc_w.l(entry2.o)
    0x0800019c   0x0800019c   0x00000024   Code   RO         2890    .text               startup_stm32f405xx.o
    0x080001c0   0x080001c0   0x00000024   Code   RO         3876    .text               mc_w.l(memcpya.o)
    0x080001e4   0x080001e4   0x000000e4   Code   RO         3880    .text               mf_w.l(dmul.o)
    0x080002c8   0x080002c8   0x000000de   Code   RO         3882    .text               mf_w.l(ddiv.o)
    0x080003a6   0x080003a6   0x00000022   Code   RO         3884    .text               mf_w.l(dflti.o)
    0x080003c8   0x080003c8   0x0000001a   Code   RO         3886    .text               mf_w.l(dfltui.o)
    0x080003e2   0x080003e2   0x0000003e   Code   RO         3888    .text               mf_w.l(dfixi.o)
    0x08000420   0x08000420   0x00000032   Code   RO         3890    .text               mf_w.l(dfixui.o)
    0x08000452   0x08000452   0x00000026   Code   RO         3892    .text               mf_w.l(f2d.o)
    0x08000478   0x08000478   0x00000038   Code   RO         3894    .text               mf_w.l(d2f.o)
    0x080004b0   0x080004b0   0x00000020   Code   RO         3910    .text               mc_w.l(llushr.o)
    0x080004d0   0x080004d0   0x00000000   Code   RO         3912    .text               mc_w.l(iusefp.o)
    0x080004d0   0x080004d0   0x0000006e   Code   RO         3913    .text               mf_w.l(fepilogue.o)
    0x0800053e   0x0800053e   0x000000ba   Code   RO         3915    .text               mf_w.l(depilogue.o)
    0x080005f8   0x080005f8   0x00000024   Code   RO         3917    .text               mc_w.l(init.o)
    0x0800061c   0x0800061c   0x0000001e   Code   RO         3919    .text               mc_w.l(llshl.o)
    0x0800063a   0x0800063a   0x00000056   Code   RO         3929    .text               mc_w.l(__dczerorl2.o)
    0x08000690   0x08000690   0x00000002   Code   RO         3268    i.BusFault_Handler  stm32f4xx_it.o
    0x08000692   0x08000692   0x00000002   PAD
    0x08000694   0x08000694   0x000000ac   Code   RO         3269    i.CAN1_RX0_IRQHandler  stm32f4xx_it.o
    0x08000740   0x08000740   0x0000000c   Code   RO         3270    i.CAN1_TX_IRQHandler  stm32f4xx_it.o
    0x0800074c   0x0800074c   0x00000126   Code   RO            4    i.CAN_Receive_IT    stm32f4xx_hal_can.o
    0x08000872   0x08000872   0x00000002   PAD
    0x08000874   0x08000874   0x00000034   Code   RO         3496    i.Can_WriteData     moshicanshu.o
    0x080008a8   0x080008a8   0x00000050   Code   RO         3164    i.DATDDP            stm32f4xx_hal_msp.o
    0x080008f8   0x080008f8   0x000000ec   Code   RO         3271    i.DMA2_Stream0_IRQHandler  stm32f4xx_it.o
    0x080009e4   0x080009e4   0x0000000c   Code   RO         3272    i.DMA2_Stream3_IRQHandler  stm32f4xx_it.o
    0x080009f0   0x080009f0   0x00000028   Code   RO         2746    i.DMA_CalcBaseAndBitshift  stm32f4xx_hal_dma.o
    0x08000a18   0x08000a18   0x00000054   Code   RO         2747    i.DMA_CheckFifoParam  stm32f4xx_hal_dma.o
    0x08000a6c   0x08000a6c   0x00000028   Code   RO         2748    i.DMA_SetConfig     stm32f4xx_hal_dma.o
    0x08000a94   0x08000a94   0x00000002   Code   RO         3273    i.DebugMon_Handler  stm32f4xx_it.o
    0x08000a96   0x08000a96   0x00000002   PAD
    0x08000a98   0x08000a98   0x000003a8   Code   RO         3274    i.EXTI15_10_IRQHandler  stm32f4xx_it.o
    0x08000e40   0x08000e40   0x000000f4   Code   RO         3275    i.EXTI3_IRQHandler  stm32f4xx_it.o
    0x08000f34   0x08000f34   0x00000014   Code   RO         3276    i.EXTI4_IRQHandler  stm32f4xx_it.o
    0x08000f48   0x08000f48   0x00000138   Code   RO         3497    i.FW_Fixed_Exec     moshicanshu.o
    0x08001080   0x08001080   0x000000f8   Code   RO            5    i.HAL_CAN_ConfigFilter  stm32f4xx_hal_can.o
    0x08001178   0x08001178   0x00000002   Code   RO            7    i.HAL_CAN_ErrorCallback  stm32f4xx_hal_can.o
    0x0800117a   0x0800117a   0x00000002   PAD
    0x0800117c   0x0800117c   0x00000234   Code   RO           10    i.HAL_CAN_IRQHandler  stm32f4xx_hal_can.o
    0x080013b0   0x080013b0   0x00000148   Code   RO           11    i.HAL_CAN_Init      stm32f4xx_hal_can.o
    0x080014f8   0x080014f8   0x00000110   Code   RO         3166    i.HAL_CAN_MspInit   stm32f4xx_hal_msp.o
    0x08001608   0x08001608   0x000000b4   Code   RO           15    i.HAL_CAN_Receive_IT  stm32f4xx_hal_can.o
    0x080016bc   0x080016bc   0x00000002   Code   RO           16    i.HAL_CAN_RxCpltCallback  stm32f4xx_hal_can.o
    0x080016be   0x080016be   0x00000124   Code   RO           19    i.HAL_CAN_Transmit_IT  stm32f4xx_hal_can.o
    0x080017e2   0x080017e2   0x00000002   Code   RO           20    i.HAL_CAN_TxCpltCallback  stm32f4xx_hal_can.o
    0x080017e4   0x080017e4   0x00000056   Code   RO         2751    i.HAL_DMA_DeInit    stm32f4xx_hal_dma.o
    0x0800183a   0x0800183a   0x00000002   PAD
    0x0800183c   0x0800183c   0x000001a8   Code   RO         2754    i.HAL_DMA_IRQHandler  stm32f4xx_hal_dma.o
    0x080019e4   0x080019e4   0x000000d4   Code   RO         2755    i.HAL_DMA_Init      stm32f4xx_hal_dma.o
    0x08001ab8   0x08001ab8   0x00000078   Code   RO         2759    i.HAL_DMA_Start_IT  stm32f4xx_hal_dma.o
    0x08001b30   0x08001b30   0x00000148   Code   RO         1437    i.HAL_GPIO_DeInit   stm32f4xx_hal_gpio.o
    0x08001c78   0x08001c78   0x00000002   Code   RO         1438    i.HAL_GPIO_EXTI_Callback  stm32f4xx_hal_gpio.o
    0x08001c7a   0x08001c7a   0x00000002   PAD
    0x08001c7c   0x08001c7c   0x00000018   Code   RO         1439    i.HAL_GPIO_EXTI_IRQHandler  stm32f4xx_hal_gpio.o
    0x08001c94   0x08001c94   0x000001b0   Code   RO         1440    i.HAL_GPIO_Init     stm32f4xx_hal_gpio.o
    0x08001e44   0x08001e44   0x0000000a   Code   RO         1442    i.HAL_GPIO_ReadPin  stm32f4xx_hal_gpio.o
    0x08001e4e   0x08001e4e   0x0000000a   Code   RO         1444    i.HAL_GPIO_WritePin  stm32f4xx_hal_gpio.o
    0x08001e58   0x08001e58   0x0000000c   Code   RO         1117    i.HAL_GetTick       stm32f4xx_hal.o
    0x08001e64   0x08001e64   0x00000004   Code   RO         2338    i.HAL_I2C_GetError  stm32f4xx_hal_i2c.o
    0x08001e68   0x08001e68   0x00000108   Code   RO         2341    i.HAL_I2C_Init      stm32f4xx_hal_i2c.o
    0x08001f70   0x08001f70   0x000001fc   Code   RO         2357    i.HAL_I2C_Mem_Read  stm32f4xx_hal_i2c.o
    0x0800216c   0x0800216c   0x0000013c   Code   RO         2360    i.HAL_I2C_Mem_Write  stm32f4xx_hal_i2c.o
    0x080022a8   0x080022a8   0x0000004c   Code   RO         3168    i.HAL_I2C_MspInit   stm32f4xx_hal_msp.o
    0x080022f4   0x080022f4   0x00000010   Code   RO         1119    i.HAL_IncTick       stm32f4xx_hal.o
    0x08002304   0x08002304   0x00000034   Code   RO         1120    i.HAL_Init          stm32f4xx_hal.o
    0x08002338   0x08002338   0x00000028   Code   RO         1121    i.HAL_InitTick      stm32f4xx_hal.o
    0x08002360   0x08002360   0x00000058   Code   RO         3169    i.HAL_MspInit       stm32f4xx_hal_msp.o
    0x080023b8   0x080023b8   0x00000016   Code   RO         1628    i.HAL_NVIC_EnableIRQ  stm32f4xx_hal_cortex.o
    0x080023ce   0x080023ce   0x00000002   PAD
    0x080023d0   0x080023d0   0x00000040   Code   RO         1634    i.HAL_NVIC_SetPriority  stm32f4xx_hal_cortex.o
    0x08002410   0x08002410   0x00000024   Code   RO         1635    i.HAL_NVIC_SetPriorityGrouping  stm32f4xx_hal_cortex.o
    0x08002434   0x08002434   0x0000017c   Code   RO         1258    i.HAL_RCC_ClockConfig  stm32f4xx_hal_rcc.o
    0x080025b0   0x080025b0   0x0000000c   Code   RO         1263    i.HAL_RCC_GetHCLKFreq  stm32f4xx_hal_rcc.o
    0x080025bc   0x080025bc   0x00000030   Code   RO         1265    i.HAL_RCC_GetPCLK1Freq  stm32f4xx_hal_rcc.o
    0x080025ec   0x080025ec   0x00000070   Code   RO         1267    i.HAL_RCC_GetSysClockFreq  stm32f4xx_hal_rcc.o
    0x0800265c   0x0800265c   0x00000314   Code   RO         1270    i.HAL_RCC_OscConfig  stm32f4xx_hal_rcc.o
    0x08002970   0x08002970   0x0000002e   Code   RO         1924    i.HAL_SPI_DeInit    stm32f4xx_hal_spi.o
    0x0800299e   0x0800299e   0x00000002   Code   RO         1925    i.HAL_SPI_ErrorCallback  stm32f4xx_hal_spi.o
    0x080029a0   0x080029a0   0x00000080   Code   RO         1929    i.HAL_SPI_Init      stm32f4xx_hal_spi.o
    0x08002a20   0x08002a20   0x0000003c   Code   RO         3170    i.HAL_SPI_MspDeInit  stm32f4xx_hal_msp.o
    0x08002a5c   0x08002a5c   0x000000e4   Code   RO         3171    i.HAL_SPI_MspInit   stm32f4xx_hal_msp.o
    0x08002b40   0x08002b40   0x00000002   Code   RO         1935    i.HAL_SPI_RxCpltCallback  stm32f4xx_hal_spi.o
    0x08002b42   0x08002b42   0x00000002   Code   RO         1936    i.HAL_SPI_RxHalfCpltCallback  stm32f4xx_hal_spi.o
    0x08002b44   0x08002b44   0x00000108   Code   RO         1939    i.HAL_SPI_TransmitReceive_DMA  stm32f4xx_hal_spi.o
    0x08002c4c   0x08002c4c   0x00000002   Code   RO         1945    i.HAL_SPI_TxRxCpltCallback  stm32f4xx_hal_spi.o
    0x08002c4e   0x08002c4e   0x00000002   Code   RO         1946    i.HAL_SPI_TxRxHalfCpltCallback  stm32f4xx_hal_spi.o
    0x08002c50   0x08002c50   0x00000018   Code   RO         1637    i.HAL_SYSTICK_CLKSourceConfig  stm32f4xx_hal_cortex.o
    0x08002c68   0x08002c68   0x00000002   Code   RO         1638    i.HAL_SYSTICK_Callback  stm32f4xx_hal_cortex.o
    0x08002c6a   0x08002c6a   0x00000028   Code   RO         1639    i.HAL_SYSTICK_Config  stm32f4xx_hal_cortex.o
    0x08002c92   0x08002c92   0x00000008   Code   RO         1640    i.HAL_SYSTICK_IRQHandler  stm32f4xx_hal_cortex.o
    0x08002c9a   0x08002c9a   0x00000002   Code   RO          865    i.HAL_TIMEx_BreakCallback  stm32f4xx_hal_tim_ex.o
    0x08002c9c   0x08002c9c   0x00000002   Code   RO          866    i.HAL_TIMEx_CommutationCallback  stm32f4xx_hal_tim_ex.o
    0x08002c9e   0x08002c9e   0x00000050   Code   RO          882    i.HAL_TIMEx_MasterConfigSynchronization  stm32f4xx_hal_tim_ex.o
    0x08002cee   0x08002cee   0x00000036   Code   RO          236    i.HAL_TIM_Base_Init  stm32f4xx_hal_tim.o
    0x08002d24   0x08002d24   0x00000070   Code   RO         3173    i.HAL_TIM_Base_MspInit  stm32f4xx_hal_msp.o
    0x08002d94   0x08002d94   0x00000018   Code   RO          241    i.HAL_TIM_Base_Start_IT  stm32f4xx_hal_tim.o
    0x08002dac   0x08002dac   0x000000f2   Code   RO          245    i.HAL_TIM_ConfigClockSource  stm32f4xx_hal_tim.o
    0x08002e9e   0x08002e9e   0x00000002   Code   RO          265    i.HAL_TIM_IC_CaptureCallback  stm32f4xx_hal_tim.o
    0x08002ea0   0x08002ea0   0x00000166   Code   RO          278    i.HAL_TIM_IRQHandler  stm32f4xx_hal_tim.o
    0x08003006   0x08003006   0x00000002   Code   RO          281    i.HAL_TIM_OC_DelayElapsedCallback  stm32f4xx_hal_tim.o
    0x08003008   0x08003008   0x00000002   Code   RO          308    i.HAL_TIM_PWM_PulseFinishedCallback  stm32f4xx_hal_tim.o
    0x0800300a   0x0800300a   0x00000002   Code   RO          315    i.HAL_TIM_PeriodElapsedCallback  stm32f4xx_hal_tim.o
    0x0800300c   0x0800300c   0x00000002   Code   RO          319    i.HAL_TIM_TriggerCallback  stm32f4xx_hal_tim.o
    0x0800300e   0x0800300e   0x00000002   PAD
    0x08003010   0x08003010   0x00000104   Code   RO         3174    i.HX530_Senddata    stm32f4xx_hal_msp.o
    0x08003114   0x08003114   0x000000f0   Code   RO         3175    i.HX530_readdata    stm32f4xx_hal_msp.o
    0x08003204   0x08003204   0x0000007c   Code   RO         3498    i.H_Xy_fan          moshicanshu.o
    0x08003280   0x08003280   0x00000002   Code   RO         3277    i.HardFault_Handler  stm32f4xx_it.o
    0x08003282   0x08003282   0x00000002   PAD
    0x08003284   0x08003284   0x00000090   Code   RO         3278    i.HuanFan           stm32f4xx_it.o
    0x08003314   0x08003314   0x00000028   Code   RO         2379    i.I2C_IsAcknowledgeFailed  stm32f4xx_hal_i2c.o
    0x0800333c   0x0800333c   0x000000f0   Code   RO         2388    i.I2C_RequestMemoryRead  stm32f4xx_hal_i2c.o
    0x0800342c   0x0800342c   0x000000a0   Code   RO         2389    i.I2C_RequestMemoryWrite  stm32f4xx_hal_i2c.o
    0x080034cc   0x080034cc   0x0000004e   Code   RO         2392    i.I2C_WaitOnBTFFlagUntilTimeout  stm32f4xx_hal_i2c.o
    0x0800351a   0x0800351a   0x00000060   Code   RO         2393    i.I2C_WaitOnFlagUntilTimeout  stm32f4xx_hal_i2c.o
    0x0800357a   0x0800357a   0x00000002   PAD
    0x0800357c   0x0800357c   0x00000088   Code   RO         2394    i.I2C_WaitOnMasterAddressFlagUntilTimeout  stm32f4xx_hal_i2c.o
    0x08003604   0x08003604   0x00000062   Code   RO         2395    i.I2C_WaitOnRXNEFlagUntilTimeout  stm32f4xx_hal_i2c.o
    0x08003666   0x08003666   0x0000004e   Code   RO         2396    i.I2C_WaitOnTXEFlagUntilTimeout  stm32f4xx_hal_i2c.o
    0x080036b4   0x080036b4   0x00000040   Code   RO         2897    i.MX_CAN1_Init      main.o
    0x080036f4   0x080036f4   0x00000164   Code   RO         2898    i.MX_GPIO_Init      main.o
    0x08003858   0x08003858   0x00000038   Code   RO         2899    i.MX_I2C2_Init      main.o
    0x08003890   0x08003890   0x000000b6   Code   RO         2900    i.MX_NVIC_Init      main.o
    0x08003946   0x08003946   0x00000002   PAD
    0x08003948   0x08003948   0x0000003c   Code   RO         2901    i.MX_SPI1_Init      main.o
    0x08003984   0x08003984   0x00000050   Code   RO         2902    i.MX_TIM2_Init      main.o
    0x080039d4   0x080039d4   0x00000024   Code   RO         2903    i.MX_TIM2_SET       main.o
    0x080039f8   0x080039f8   0x00000054   Code   RO         2904    i.MX_TIM3_Init      main.o
    0x08003a4c   0x08003a4c   0x00000024   Code   RO         2905    i.MX_TIM3_SET       main.o
    0x08003a70   0x08003a70   0x00000054   Code   RO         2906    i.MX_TIM4_Init      main.o
    0x08003ac4   0x08003ac4   0x00000024   Code   RO         2907    i.MX_TIM4_SET       main.o
    0x08003ae8   0x08003ae8   0x00000058   Code   RO         2908    i.MX_TIM5_Init      main.o
    0x08003b40   0x08003b40   0x00000024   Code   RO         2909    i.MX_TIM5_SET       main.o
    0x08003b64   0x08003b64   0x00000002   Code   RO         3279    i.MemManage_Handler  stm32f4xx_it.o
    0x08003b66   0x08003b66   0x00000002   Code   RO         3280    i.NMI_Handler       stm32f4xx_it.o
    0x08003b68   0x08003b68   0x00000020   Code   RO         1641    i.NVIC_SetPriority  stm32f4xx_hal_cortex.o
    0x08003b88   0x08003b88   0x00000002   Code   RO         3281    i.PendSV_Handler    stm32f4xx_it.o
    0x08003b8a   0x08003b8a   0x00000002   PAD
    0x08003b8c   0x08003b8c   0x00000058   Code   RO         3282    i.RD_AM8192         stm32f4xx_it.o
    0x08003be4   0x08003be4   0x00000054   Code   RO         3283    i.Read1_AM8192      stm32f4xx_it.o
    0x08003c38   0x08003c38   0x0000005c   Code   RO         3284    i.Read_AM8192       stm32f4xx_it.o
    0x08003c94   0x08003c94   0x00000020   Code   RO         1953    i.SPI_CheckFlag_BSY  stm32f4xx_hal_spi.o
    0x08003cb4   0x08003cb4   0x00000022   Code   RO         1958    i.SPI_DMAError      stm32f4xx_hal_spi.o
    0x08003cd6   0x08003cd6   0x0000000a   Code   RO         1959    i.SPI_DMAHalfReceiveCplt  stm32f4xx_hal_spi.o
    0x08003ce0   0x08003ce0   0x0000000a   Code   RO         1961    i.SPI_DMAHalfTransmitReceiveCplt  stm32f4xx_hal_spi.o
    0x08003cea   0x08003cea   0x00000052   Code   RO         1962    i.SPI_DMAReceiveCplt  stm32f4xx_hal_spi.o
    0x08003d3c   0x08003d3c   0x00000050   Code   RO         1965    i.SPI_DMATransmitReceiveCplt  stm32f4xx_hal_spi.o
    0x08003d8c   0x08003d8c   0x00000096   Code   RO         1971    i.SPI_WaitFlagStateUntilTimeout  stm32f4xx_hal_spi.o
    0x08003e22   0x08003e22   0x00000002   Code   RO         3285    i.SVC_Handler       stm32f4xx_it.o
    0x08003e24   0x08003e24   0x00001268   Code   RO         3288    i.SysTick_Handler   stm32f4xx_it.o
    0x0800508c   0x0800508c   0x0000009c   Code   RO         2910    i.SystemClock_Config  main.o
    0x08005128   0x08005128   0x00000054   Code   RO         2853    i.SystemInit        system_stm32f4xx.o
    0x0800517c   0x0800517c   0x000002dc   Code   RO         3289    i.TIM2_IRQHandler   stm32f4xx_it.o
    0x08005458   0x08005458   0x000000cc   Code   RO         3290    i.TIM3_IRQHandler   stm32f4xx_it.o
    0x08005524   0x08005524   0x000000ac   Code   RO         3291    i.TIM4_IRQHandler   stm32f4xx_it.o
    0x080055d0   0x080055d0   0x00000070   Code   RO         3292    i.TIM5_IRQHandler   stm32f4xx_it.o
    0x08005640   0x08005640   0x000000c0   Code   RO          320    i.TIM_Base_SetConfig  stm32f4xx_hal_tim.o
    0x08005700   0x08005700   0x00000014   Code   RO          327    i.TIM_ETR_SetConfig  stm32f4xx_hal_tim.o
    0x08005714   0x08005714   0x00000010   Code   RO          328    i.TIM_ITRx_SetConfig  stm32f4xx_hal_tim.o
    0x08005724   0x08005724   0x00000022   Code   RO          334    i.TIM_TI1_ConfigInputStage  stm32f4xx_hal_tim.o
    0x08005746   0x08005746   0x00000024   Code   RO          336    i.TIM_TI2_ConfigInputStage  stm32f4xx_hal_tim.o
    0x0800576a   0x0800576a   0x00000002   Code   RO         3293    i.UsageFault_Handler  stm32f4xx_it.o
    0x0800576c   0x0800576c   0x00000028   Code   RO         3294    i.XJ_ext            stm32f4xx_it.o
    0x08005794   0x08005794   0x00000104   Code   RO         3295    i.Z_H_SaoMiao       stm32f4xx_it.o
    0x08005898   0x08005898   0x00000002   Code   RO         2911    i._Error_Handler    main.o
    0x0800589a   0x0800589a   0x0000000e   Code   RO         3923    i.__scatterload_copy  mc_w.l(handlers.o)
    0x080058a8   0x080058a8   0x00000002   Code   RO         3924    i.__scatterload_null  mc_w.l(handlers.o)
    0x080058aa   0x080058aa   0x0000000e   Code   RO         3925    i.__scatterload_zeroinit  mc_w.l(handlers.o)
    0x080058b8   0x080058b8   0x000000a8   Code   RO         3296    i.allfwei           stm32f4xx_it.o
    0x08005960   0x08005960   0x0000003c   Code   RO         3297    i.chk_kuaifan_24    stm32f4xx_it.o
    0x0800599c   0x0800599c   0x0000003c   Code   RO         3298    i.chk_mowan         stm32f4xx_it.o
    0x080059d8   0x080059d8   0x0000002c   Code   RO         3499    i.clr_8192_RD       moshicanshu.o
    0x08005a04   0x08005a04   0x00000040   Code   RO         3501    i.clr_f8            moshicanshu.o
    0x08005a44   0x08005a44   0x00000050   Code   RO         3502    i.dpdatclr          moshicanshu.o
    0x08005a94   0x08005a94   0x000000c8   Code   RO         3503    i.excfanwei_STOP    moshicanshu.o
    0x08005b5c   0x08005b5c   0x0000001c   Code   RO         3504    i.excomm_QJkz       moshicanshu.o
    0x08005b78   0x08005b78   0x00000030   Code   RO         3505    i.exczsfanwei_BJ    moshicanshu.o
    0x08005ba8   0x08005ba8   0x00000020   Code   RO         3506    i.exczsfanwei_ST    moshicanshu.o
    0x08005bc8   0x08005bc8   0x000000e4   Code   RO         3507    i.exppfw            moshicanshu.o
    0x08005cac   0x08005cac   0x0000001c   Code   RO         3508    i.fanchafanweixiabiao  moshicanshu.o
    0x08005cc8   0x08005cc8   0x00000014   Code   RO         3509    i.fweipandin        moshicanshu.o
    0x08005cdc   0x08005cdc   0x0000002e   Code   RO         3511    i.jsfxwz            moshicanshu.o
    0x08005d0a   0x08005d0a   0x00000002   PAD
    0x08005d0c   0x08005d0c   0x00000ec0   Code   RO         2912    i.main              main.o
    0x08006bcc   0x08006bcc   0x00000024   Code   RO         2913    i.setfanwei         main.o
    0x08006bf0   0x08006bf0   0x00000134   Code   RO         3300    i.smypfwei          stm32f4xx_it.o
    0x08006d24   0x08006d24   0x00000008   Data   RO         2761    .constdata          stm32f4xx_hal_dma.o
    0x08006d2c   0x08006d2c   0x00000010   Data   RO         2854    .constdata          system_stm32f4xx.o
    0x08006d3c   0x08006d3c   0x00000008   Data   RO         2855    .constdata          system_stm32f4xx.o
    0x08006d44   0x08006d44   0x00000044   Data   RO         3512    .constdata          moshicanshu.o
    0x08006d88   0x08006d88   0x00000008   Data   RO         3516    .constdata          moshicanshu.o
    0x08006d90   0x08006d90   0x00000008   Data   RO         3517    .constdata          moshicanshu.o
    0x08006d98   0x08006d98   0x00000008   Data   RO         3518    .constdata          moshicanshu.o
    0x08006da0   0x08006da0   0x00000008   Data   RO         3519    .constdata          moshicanshu.o
    0x08006da8   0x08006da8   0x00000008   Data   RO         3520    .constdata          moshicanshu.o
    0x08006db0   0x08006db0   0x00000008   Data   RO         3521    .constdata          moshicanshu.o
    0x08006db8   0x08006db8   0x00000008   Data   RO         3522    .constdata          moshicanshu.o
    0x08006dc0   0x08006dc0   0x00000008   Data   RO         3523    .constdata          moshicanshu.o
    0x08006dc8   0x08006dc8   0x00000008   Data   RO         3524    .constdata          moshicanshu.o
    0x08006dd0   0x08006dd0   0x00000008   Data   RO         3525    .constdata          moshicanshu.o
    0x08006dd8   0x08006dd8   0x00000008   Data   RO         3526    .constdata          moshicanshu.o
    0x08006de0   0x08006de0   0x00000008   Data   RO         3527    .constdata          moshicanshu.o
    0x08006de8   0x08006de8   0x00000008   Data   RO         3528    .constdata          moshicanshu.o
    0x08006df0   0x08006df0   0x00000008   Data   RO         3529    .constdata          moshicanshu.o
    0x08006df8   0x08006df8   0x00000008   Data   RO         3530    .constdata          moshicanshu.o
    0x08006e00   0x08006e00   0x00000008   Data   RO         3531    .constdata          moshicanshu.o
    0x08006e08   0x08006e08   0x00000005   Data   RO         3532    .constdata          moshicanshu.o
    0x08006e0d   0x08006e0d   0x00000005   Data   RO         3533    .constdata          moshicanshu.o
    0x08006e12   0x08006e12   0x00000006   Data   RO         3534    .constdata          moshicanshu.o
    0x08006e18   0x08006e18   0x00000005   Data   RO         3535    .constdata          moshicanshu.o
    0x08006e1d   0x08006e1d   0x00000006   Data   RO         3536    .constdata          moshicanshu.o
    0x08006e23   0x08006e23   0x00000005   Data   RO         3537    .constdata          moshicanshu.o
    0x08006e28   0x08006e28   0x00000005   Data   RO         3538    .constdata          moshicanshu.o
    0x08006e2d   0x08006e2d   0x00000006   Data   RO         3539    .constdata          moshicanshu.o
    0x08006e33   0x08006e33   0x00000006   Data   RO         3540    .constdata          moshicanshu.o
    0x08006e39   0x08006e39   0x00000005   Data   RO         3541    .constdata          moshicanshu.o
    0x08006e3e   0x08006e3e   0x00000006   Data   RO         3542    .constdata          moshicanshu.o
    0x08006e44   0x08006e44   0x00000005   Data   RO         3543    .constdata          moshicanshu.o
    0x08006e49   0x08006e49   0x00000005   Data   RO         3544    .constdata          moshicanshu.o
    0x08006e4e   0x08006e4e   0x00000005   Data   RO         3545    .constdata          moshicanshu.o
    0x08006e53   0x08006e53   0x00000005   Data   RO         3546    .constdata          moshicanshu.o
    0x08006e58   0x08006e58   0x00000006   Data   RO         3547    .constdata          moshicanshu.o
    0x08006e5e   0x08006e5e   0x00000005   Data   RO         3548    .constdata          moshicanshu.o
    0x08006e63   0x08006e63   0x00000005   Data   RO         3549    .constdata          moshicanshu.o
    0x08006e68   0x08006e68   0x00000005   Data   RO         3550    .constdata          moshicanshu.o
    0x08006e6d   0x08006e6d   0x00000005   Data   RO         3551    .constdata          moshicanshu.o
    0x08006e72   0x08006e72   0x00000005   Data   RO         3552    .constdata          moshicanshu.o
    0x08006e77   0x08006e77   0x00000006   Data   RO         3553    .constdata          moshicanshu.o
    0x08006e7d   0x08006e7d   0x00000006   Data   RO         3554    .constdata          moshicanshu.o
    0x08006e83   0x08006e83   0x00000006   Data   RO         3555    .constdata          moshicanshu.o
    0x08006e89   0x08006e89   0x00000006   Data   RO         3556    .constdata          moshicanshu.o
    0x08006e8f   0x08006e8f   0x00000006   Data   RO         3557    .constdata          moshicanshu.o
    0x08006e95   0x08006e95   0x00000006   Data   RO         3558    .constdata          moshicanshu.o
    0x08006e9b   0x08006e9b   0x00000005   Data   RO         3559    .constdata          moshicanshu.o
    0x08006ea0   0x08006ea0   0x00000005   Data   RO         3560    .constdata          moshicanshu.o
    0x08006ea5   0x08006ea5   0x00000005   Data   RO         3561    .constdata          moshicanshu.o
    0x08006eaa   0x08006eaa   0x00000005   Data   RO         3562    .constdata          moshicanshu.o
    0x08006eaf   0x08006eaf   0x00000006   Data   RO         3563    .constdata          moshicanshu.o
    0x08006eb5   0x08006eb5   0x00000005   Data   RO         3564    .constdata          moshicanshu.o
    0x08006eba   0x08006eba   0x00000005   Data   RO         3565    .constdata          moshicanshu.o
    0x08006ebf   0x08006ebf   0x00000006   Data   RO         3566    .constdata          moshicanshu.o
    0x08006ec5   0x08006ec5   0x00000006   Data   RO         3567    .constdata          moshicanshu.o
    0x08006ecb   0x08006ecb   0x00000006   Data   RO         3568    .constdata          moshicanshu.o
    0x08006ed1   0x08006ed1   0x00000006   Data   RO         3569    .constdata          moshicanshu.o
    0x08006ed7   0x08006ed7   0x00000006   Data   RO         3570    .constdata          moshicanshu.o
    0x08006edd   0x08006edd   0x00000005   Data   RO         3571    .constdata          moshicanshu.o
    0x08006ee2   0x08006ee2   0x00000005   Data   RO         3572    .constdata          moshicanshu.o
    0x08006ee7   0x08006ee7   0x00000005   Data   RO         3573    .constdata          moshicanshu.o
    0x08006eec   0x08006eec   0x00000005   Data   RO         3574    .constdata          moshicanshu.o
    0x08006ef1   0x08006ef1   0x00000005   Data   RO         3575    .constdata          moshicanshu.o
    0x08006ef6   0x08006ef6   0x00000005   Data   RO         3576    .constdata          moshicanshu.o
    0x08006efb   0x08006efb   0x00000005   Data   RO         3577    .constdata          moshicanshu.o
    0x08006f00   0x08006f00   0x00000005   Data   RO         3578    .constdata          moshicanshu.o
    0x08006f05   0x08006f05   0x00000005   Data   RO         3579    .constdata          moshicanshu.o
    0x08006f0a   0x08006f0a   0x00000009   Data   RO         3580    .constdata          moshicanshu.o
    0x08006f13   0x08006f13   0x00000009   Data   RO         3581    .constdata          moshicanshu.o
    0x08006f1c   0x08006f1c   0x00000009   Data   RO         3582    .constdata          moshicanshu.o
    0x08006f25   0x08006f25   0x00000009   Data   RO         3583    .constdata          moshicanshu.o
    0x08006f2e   0x08006f2e   0x00000009   Data   RO         3584    .constdata          moshicanshu.o
    0x08006f37   0x08006f37   0x00000009   Data   RO         3585    .constdata          moshicanshu.o
    0x08006f40   0x08006f40   0x00000009   Data   RO         3586    .constdata          moshicanshu.o
    0x08006f49   0x08006f49   0x00000009   Data   RO         3587    .constdata          moshicanshu.o
    0x08006f52   0x08006f52   0x00000009   Data   RO         3588    .constdata          moshicanshu.o
    0x08006f5b   0x08006f5b   0x00000009   Data   RO         3589    .constdata          moshicanshu.o
    0x08006f64   0x08006f64   0x00000009   Data   RO         3590    .constdata          moshicanshu.o
    0x08006f6d   0x08006f6d   0x00000009   Data   RO         3591    .constdata          moshicanshu.o
    0x08006f76   0x08006f76   0x00000009   Data   RO         3592    .constdata          moshicanshu.o
    0x08006f7f   0x08006f7f   0x00000009   Data   RO         3593    .constdata          moshicanshu.o
    0x08006f88   0x08006f88   0x00000009   Data   RO         3594    .constdata          moshicanshu.o
    0x08006f91   0x08006f91   0x00000009   Data   RO         3595    .constdata          moshicanshu.o
    0x08006f9a   0x08006f9a   0x00000009   Data   RO         3596    .constdata          moshicanshu.o
    0x08006fa3   0x08006fa3   0x00000009   Data   RO         3597    .constdata          moshicanshu.o
    0x08006fac   0x08006fac   0x00000009   Data   RO         3598    .constdata          moshicanshu.o
    0x08006fb5   0x08006fb5   0x00000009   Data   RO         3599    .constdata          moshicanshu.o
    0x08006fbe   0x08006fbe   0x00000009   Data   RO         3600    .constdata          moshicanshu.o
    0x08006fc7   0x08006fc7   0x00000009   Data   RO         3601    .constdata          moshicanshu.o
    0x08006fd0   0x08006fd0   0x00000009   Data   RO         3602    .constdata          moshicanshu.o
    0x08006fd9   0x08006fd9   0x00000009   Data   RO         3603    .constdata          moshicanshu.o
    0x08006fe2   0x08006fe2   0x00000009   Data   RO         3604    .constdata          moshicanshu.o
    0x08006feb   0x08006feb   0x00000009   Data   RO         3605    .constdata          moshicanshu.o
    0x08006ff4   0x08006ff4   0x00000009   Data   RO         3606    .constdata          moshicanshu.o
    0x08006ffd   0x08006ffd   0x00000009   Data   RO         3607    .constdata          moshicanshu.o
    0x08007006   0x08007006   0x00000009   Data   RO         3608    .constdata          moshicanshu.o
    0x0800700f   0x0800700f   0x00000009   Data   RO         3609    .constdata          moshicanshu.o
    0x08007018   0x08007018   0x00000009   Data   RO         3610    .constdata          moshicanshu.o
    0x08007021   0x08007021   0x00000009   Data   RO         3611    .constdata          moshicanshu.o
    0x0800702a   0x0800702a   0x00000003   Data   RO         3612    .constdata          moshicanshu.o
    0x0800702d   0x0800702d   0x00000003   Data   RO         3613    .constdata          moshicanshu.o
    0x08007030   0x08007030   0x00000009   Data   RO         3614    .constdata          moshicanshu.o
    0x08007039   0x08007039   0x00000009   Data   RO         3615    .constdata          moshicanshu.o
    0x08007042   0x08007042   0x00000003   Data   RO         3616    .constdata          moshicanshu.o
    0x08007045   0x08007045   0x00000003   Data   RO         3617    .constdata          moshicanshu.o
    0x08007048   0x08007048   0x00000003   Data   RO         3618    .constdata          moshicanshu.o
    0x0800704b   0x0800704b   0x00000009   Data   RO         3619    .constdata          moshicanshu.o
    0x08007054   0x08007054   0x00000009   Data   RO         3620    .constdata          moshicanshu.o
    0x0800705d   0x0800705d   0x00000003   Data   RO         3621    .constdata          moshicanshu.o
    0x08007060   0x08007060   0x00000003   Data   RO         3622    .constdata          moshicanshu.o
    0x08007063   0x08007063   0x00000003   Data   RO         3623    .constdata          moshicanshu.o
    0x08007066   0x08007066   0x00000009   Data   RO         3624    .constdata          moshicanshu.o
    0x0800706f   0x0800706f   0x00000009   Data   RO         3625    .constdata          moshicanshu.o
    0x08007078   0x08007078   0x00000003   Data   RO         3626    .constdata          moshicanshu.o
    0x0800707b   0x0800707b   0x00000003   Data   RO         3627    .constdata          moshicanshu.o
    0x0800707e   0x0800707e   0x00000002   PAD
    0x08007080   0x08007080   0x00000020   Data   RO         3921    Region$$Table       anon$$obj.o


    Execution Region RW_IRAM1 (Exec base: 0x20000000, Load base: 0x080070a0, Size: 0x000021d0, Max: 0x00020000, ABSOLUTE, COMPRESSED[0x0000017c])

    Exec Addr    Load Addr    Size         Type   Attr      Idx    E Section Name        Object

    0x20000000   COMPRESSED   0x00000004   Data   RW         1126    .data               stm32f4xx_hal.o
    0x20000004   COMPRESSED   0x00000004   Data   RW         2856    .data               system_stm32f4xx.o
    0x20000008   COMPRESSED   0x00000001   Data   RW         2922    .data               main.o
    0x20000009   COMPRESSED   0x00000001   Data   RW         2923    .data               main.o
    0x2000000a   COMPRESSED   0x00000001   Data   RW         2924    .data               main.o
    0x2000000b   COMPRESSED   0x00000001   PAD
    0x2000000c   COMPRESSED   0x0000006e   Data   RW         2925    .data               main.o
    0x2000007a   COMPRESSED   0x00000002   PAD
    0x2000007c   COMPRESSED   0x00000008   Data   RW         2927    .data               main.o
    0x20000084   COMPRESSED   0x00000008   Data   RW         2928    .data               main.o
    0x2000008c   COMPRESSED   0x00000006   Data   RW         2929    .data               main.o
    0x20000092   COMPRESSED   0x00000002   Data   RW         2930    .data               main.o
    0x20000094   COMPRESSED   0x00000004   Data   RW         2931    .data               main.o
    0x20000098   COMPRESSED   0x00000004   Data   RW         2932    .data               main.o
    0x2000009c   COMPRESSED   0x00000004   Data   RW         2933    .data               main.o
    0x200000a0   COMPRESSED   0x00000001   Data   RW         2938    .data               main.o
    0x200000a1   COMPRESSED   0x00000001   Data   RW         2939    .data               main.o
    0x200000a2   COMPRESSED   0x00000001   Data   RW         2940    .data               main.o
    0x200000a3   COMPRESSED   0x00000001   Data   RW         2941    .data               main.o
    0x200000a4   COMPRESSED   0x00000004   Data   RW         2942    .data               main.o
    0x200000a8   COMPRESSED   0x00000004   Data   RW         2943    .data               main.o
    0x200000ac   COMPRESSED   0x00000001   Data   RW         2945    .data               main.o
    0x200000ad   COMPRESSED   0x00000001   Data   RW         2947    .data               main.o
    0x200000ae   COMPRESSED   0x00000001   Data   RW         2950    .data               main.o
    0x200000af   COMPRESSED   0x00000001   Data   RW         2951    .data               main.o
    0x200000b0   COMPRESSED   0x00000001   Data   RW         2954    .data               main.o
    0x200000b1   COMPRESSED   0x00000001   Data   RW         2958    .data               main.o
    0x200000b2   COMPRESSED   0x00000001   Data   RW         2959    .data               main.o
    0x200000b3   COMPRESSED   0x00000001   Data   RW         2961    .data               main.o
    0x200000b4   COMPRESSED   0x00000001   Data   RW         2962    .data               main.o
    0x200000b5   COMPRESSED   0x00000001   Data   RW         2963    .data               main.o
    0x200000b6   COMPRESSED   0x00000001   Data   RW         2972    .data               main.o
    0x200000b7   COMPRESSED   0x00000001   Data   RW         2973    .data               main.o
    0x200000b8   COMPRESSED   0x00000001   Data   RW         2974    .data               main.o
    0x200000b9   COMPRESSED   0x00000001   Data   RW         2976    .data               main.o
    0x200000ba   COMPRESSED   0x00000001   Data   RW         2977    .data               main.o
    0x200000bb   COMPRESSED   0x00000001   Data   RW         2981    .data               main.o
    0x200000bc   COMPRESSED   0x00000001   Data   RW         2982    .data               main.o
    0x200000bd   COMPRESSED   0x00000001   Data   RW         2983    .data               main.o
    0x200000be   COMPRESSED   0x00000002   Data   RW         2986    .data               main.o
    0x200000c0   COMPRESSED   0x00000002   Data   RW         2987    .data               main.o
    0x200000c2   COMPRESSED   0x00000002   Data   RW         2990    .data               main.o
    0x200000c4   COMPRESSED   0x00000002   Data   RW         2991    .data               main.o
    0x200000c6   COMPRESSED   0x00000002   PAD
    0x200000c8   COMPRESSED   0x00000004   Data   RW         2992    .data               main.o
    0x200000cc   COMPRESSED   0x00000004   Data   RW         2994    .data               main.o
    0x200000d0   COMPRESSED   0x00000004   Data   RW         2997    .data               main.o
    0x200000d4   COMPRESSED   0x00000004   Data   RW         2998    .data               main.o
    0x200000d8   COMPRESSED   0x00000004   Data   RW         2999    .data               main.o
    0x200000dc   COMPRESSED   0x00000004   Data   RW         3001    .data               main.o
    0x200000e0   COMPRESSED   0x00000002   Data   RW         3002    .data               main.o
    0x200000e2   COMPRESSED   0x00000002   Data   RW         3004    .data               main.o
    0x200000e4   COMPRESSED   0x00000002   Data   RW         3005    .data               main.o
    0x200000e6   COMPRESSED   0x00000002   Data   RW         3006    .data               main.o
    0x200000e8   COMPRESSED   0x00000004   Data   RW         3009    .data               main.o
    0x200000ec   COMPRESSED   0x00000004   Data   RW         3012    .data               main.o
    0x200000f0   COMPRESSED   0x00000004   Data   RW         3015    .data               main.o
    0x200000f4   COMPRESSED   0x00000002   Data   RW         3018    .data               main.o
    0x200000f6   COMPRESSED   0x00000001   Data   RW         3020    .data               main.o
    0x200000f7   COMPRESSED   0x00000001   Data   RW         3021    .data               main.o
    0x200000f8   COMPRESSED   0x00000002   Data   RW         3022    .data               main.o
    0x200000fa   COMPRESSED   0x00000002   Data   RW         3023    .data               main.o
    0x200000fc   COMPRESSED   0x00000001   Data   RW         3032    .data               main.o
    0x200000fd   COMPRESSED   0x00000001   Data   RW         3034    .data               main.o
    0x200000fe   COMPRESSED   0x00000001   Data   RW         3035    .data               main.o
    0x200000ff   COMPRESSED   0x00000001   Data   RW         3038    .data               main.o
    0x20000100   COMPRESSED   0x00000001   Data   RW         3040    .data               main.o
    0x20000101   COMPRESSED   0x00000001   Data   RW         3041    .data               main.o
    0x20000102   COMPRESSED   0x00000001   Data   RW         3042    .data               main.o
    0x20000103   COMPRESSED   0x00000001   PAD
    0x20000104   COMPRESSED   0x00000002   Data   RW         3046    .data               main.o
    0x20000106   COMPRESSED   0x00000001   Data   RW         3048    .data               main.o
    0x20000107   COMPRESSED   0x00000001   PAD
    0x20000108   COMPRESSED   0x00000008   Data   RW         3178    .data               stm32f4xx_hal_msp.o
    0x20000110   COMPRESSED   0x00000014   Data   RW         3301    .data               stm32f4xx_it.o
    0x20000124   COMPRESSED   0x00000040   Data   RW         3751    .data               moshicanshu.o
    0x20000164   COMPRESSED   0x00000040   Data   RW         3752    .data               moshicanshu.o
    0x200001a4   COMPRESSED   0x00000040   Data   RW         3753    .data               moshicanshu.o
    0x200001e4   COMPRESSED   0x00000040   Data   RW         3754    .data               moshicanshu.o
    0x20000224   COMPRESSED   0x00000040   Data   RW         3755    .data               moshicanshu.o
    0x20000264   COMPRESSED   0x00000040   Data   RW         3756    .data               moshicanshu.o
    0x200002a4   COMPRESSED   0x00000040   Data   RW         3757    .data               moshicanshu.o
    0x200002e4   COMPRESSED   0x00000040   Data   RW         3758    .data               moshicanshu.o
    0x20000324   COMPRESSED   0x00000020   Data   RW         3759    .data               moshicanshu.o
    0x20000344        -       0x00001630   Zero   RW         2914    .bss                main.o
    0x20001974        -       0x00000060   Zero   RW         2915    .bss                main.o
    0x200019d4        -       0x00000060   Zero   RW         2916    .bss                main.o
    0x20001a34        -       0x0000001c   Zero   RW         2917    .bss                main.o
    0x20001a50        -       0x00000024   Zero   RW         2918    .bss                main.o
    0x20001a74        -       0x00000030   Zero   RW         2921    .bss                main.o
    0x20001aa4        -       0x00000028   Zero   RW         3177    .bss                stm32f4xx_hal_msp.o
    0x20001acc   COMPRESSED   0x00000004   PAD
    0x20001ad0        -       0x00000700   Zero   RW         2887    STACK               startup_stm32f405xx.o


==============================================================================

Image component sizes


      Code (inc. data)   RO Data    RW Data    ZI Data      Debug   Object Name

      5168        340          0        249       5984      29755   main.o
      1306        272        826        544          0      19841   moshicanshu.o
        36          8        392          0       1792        840   startup_stm32f405xx.o
       120         22          0          4          0       4119   stm32f4xx_hal.o
      1912         20          0          0          0     654552   stm32f4xx_hal_can.o
       228         14          0          0          0      32593   stm32f4xx_hal_cortex.o
      1006         22          8          0          0       6956   stm32f4xx_hal_dma.o
       806         90          0          0          0       5553   stm32f4xx_hal_gpio.o
      2018         36          0          0          0      14165   stm32f4xx_hal_i2c.o
      1416        170          0          8         40       8541   stm32f4xx_hal_msp.o
      1340         62          0          0          0       5365   stm32f4xx_hal_rcc.o
       846         22          0          0          0      11242   stm32f4xx_hal_spi.o
       986         44          0          0          0      11187   stm32f4xx_hal_tim.o
        84          0          0          0          0       2614   stm32f4xx_hal_tim_ex.o
      8884       1328          0         20          0      25208   stm32f4xx_it.o
        84         18         24          4          0       1303   system_stm32f4xx.o

    ----------------------------------------------------------------------
     26266       2468       1284        836       7820     833834   Object Totals
         0          0         32          0          0          0   (incl. Generated)
        26          0          2          7          4          0   (incl. Padding)

    ----------------------------------------------------------------------

      Code (inc. data)   RO Data    RW Data    ZI Data      Debug   Library Member Name

        86          0          0          0          0          0   __dczerorl2.o
         0          0          0          0          0          0   entry.o
         0          0          0          0          0          0   entry10a.o
         0          0          0          0          0          0   entry11a.o
         8          4          0          0          0          0   entry2.o
         4          0          0          0          0          0   entry5.o
         0          0          0          0          0          0   entry7b.o
         0          0          0          0          0          0   entry8b.o
         8          4          0          0          0          0   entry9a.o
        30          0          0          0          0          0   handlers.o
        36          8          0          0          0         68   init.o
         0          0          0          0          0          0   iusefp.o
        30          0          0          0          0         68   llshl.o
        32          0          0          0          0         68   llushr.o
        36          0          0          0          0         68   memcpya.o
        56          0          0          0          0         88   d2f.o
       222          0          0          0          0        100   ddiv.o
       186          0          0          0          0        176   depilogue.o
        62          0          0          0          0         80   dfixi.o
        50          0          0          0          0         76   dfixui.o
        34          0          0          0          0         76   dflti.o
        26          0          0          0          0         76   dfltui.o
       228          0          0          0          0         96   dmul.o
        38          0          0          0          0         68   f2d.o
       110          0          0          0          0        168   fepilogue.o

    ----------------------------------------------------------------------
      1282         16          0          0          0       1276   Library Totals
         0          0          0          0          0          0   (incl. Padding)

    ----------------------------------------------------------------------

      Code (inc. data)   RO Data    RW Data    ZI Data      Debug   Library Name

       270         16          0          0          0        272   mc_w.l
      1012          0          0          0          0       1004   mf_w.l

    ----------------------------------------------------------------------
      1282         16          0          0          0       1276   Library Totals

    ----------------------------------------------------------------------

==============================================================================


      Code (inc. data)   RO Data    RW Data    ZI Data      Debug   

     27548       2484       1284        836       7820     820122   Grand Totals
     27548       2484       1284        380       7820     820122   ELF Image Totals (compressed)
     27548       2484       1284        380          0          0   ROM Totals

==============================================================================

    Total RO  Size (Code + RO Data)                28832 (  28.16kB)
    Total RW  Size (RW Data + ZI Data)              8656 (   8.45kB)
    Total ROM Size (Code + RO Data + RW Data)      29212 (  28.53kB)

==============================================================================

